Archive member included to satisfy reference by file (symbol)

build/cooja/mtype884.a(simEnvChange.o)
                              build/cooja/mtype884.o (simDontFallAsleep)
build/cooja/mtype884.a(cooja_mt.o)
                              build/cooja/mtype884.o (cooja_mt_start)
build/cooja/mtype884.a(cooja_mtarch.o)
                              build/cooja/mtype884.a(cooja_mt.o) (cooja_mtarch_start)
build/cooja/mtype884.a(rtimer-arch.o)
                              build/cooja/mtype884.o (rtimer_arch_check)
build/cooja/mtype884.a(beep.o)
                              build/cooja/mtype884.o (beep_interface)
build/cooja/mtype884.a(leds-arch.o)
                              build/cooja/mtype884.o (leds_interface)
build/cooja/mtype884.a(moteid.o)
                              build/cooja/mtype884.o (moteid_interface)
build/cooja/mtype884.a(pir-sensor.o)
                              build/cooja/mtype884.o (pir_interface)
build/cooja/mtype884.a(rs232.o)
                              build/cooja/mtype884.o (rs232_interface)
build/cooja/mtype884.a(vib-sensor.o)
                              build/cooja/mtype884.o (vib_interface)
build/cooja/mtype884.a(clock.o)
                              build/cooja/mtype884.o (clock_interface)
build/cooja/mtype884.a(cooja-log.o)
                              build/cooja/mtype884.o (simlog_interface)
build/cooja/mtype884.a(cfs-cooja.o)
                              build/cooja/mtype884.o (cfs_interface)
build/cooja/mtype884.a(cooja-radio.o)
                              build/cooja/mtype884.o (radio_interface)
build/cooja/mtype884.a(eeprom.o)
                              build/cooja/mtype884.o (eeprom_interface)
build/cooja/mtype884.a(random.o)
                              build/cooja/mtype884.a(moteid.o) (random_init)
build/cooja/mtype884.a(sensors.o)
                              build/cooja/mtype884.a(pir-sensor.o) (sensors_changed)
build/cooja/mtype884.a(leds.o)
                              build/cooja/mtype884.a(leds-arch.o) (leds_get)
build/cooja/mtype884.a(gpio-hal-arch.o)
                              build/cooja/mtype884.a(leds-arch.o) (gpio_hal_arch_register_pin_callback)
build/cooja/mtype884.a(buttons.o)
                              build/cooja/mtype884.o (button_interface)
build/cooja/mtype884.a(mqtt.o)
                              temperature-sensor.o (mqtt_register)
build/cooja/mtype884.a(contiki-main.o)
                              build/cooja/mtype884.o (main)
build/cooja/mtype884.a(autostart.o)
                              build/cooja/mtype884.a(contiki-main.o) (autostart_start)
build/cooja/mtype884.a(ctimer.o)
                              build/cooja/mtype884.a(contiki-main.o) (ctimer_init)
build/cooja/mtype884.a(log.o)
                              build/cooja/mtype884.a(contiki-main.o) (curr_log_level_main)
build/cooja/mtype884.a(energest.o)
                              build/cooja/mtype884.a(contiki-main.o) (energest_init)
build/cooja/mtype884.a(etimer.o)
                              build/cooja/mtype884.a(contiki-main.o) (etimer_process)
build/cooja/mtype884.a(node-id.o)
                              build/cooja/mtype884.a(contiki-main.o) (node_id)
build/cooja/mtype884.a(rtimer.o)
                              build/cooja/mtype884.a(contiki-main.o) (rtimer_init)
build/cooja/mtype884.a(process.o)
                              build/cooja/mtype884.a(mqtt.o) (process_current)
build/cooja/mtype884.a(timer.o)
                              build/cooja/mtype884.a(mqtt.o) (timer_set)
build/cooja/mtype884.a(list.o)
                              build/cooja/mtype884.a(mqtt.o) (list_init)
build/cooja/mtype884.a(button-hal.o)
                              build/cooja/mtype884.o (button_hal_init)
build/cooja/mtype884.a(serial-line.o)
                              build/cooja/mtype884.a(rs232.o) (serial_line_input_byte)
build/cooja/mtype884.a(gpio-hal.o)
                              build/cooja/mtype884.a(button-hal.o) (gpio_hal_register_handler)
build/cooja/mtype884.a(queuebuf.o)
                              build/cooja/mtype884.a(contiki-main.o) (queuebuf_init)
build/cooja/mtype884.a(packetbuf.o)
                              build/cooja/mtype884.a(cooja-radio.o) (packetbuf_clear)
build/cooja/mtype884.a(netstack.o)
                              build/cooja/mtype884.a(contiki-main.o) (netstack_init)
build/cooja/mtype884.a(linkaddr.o)
                              temperature-sensor.o (linkaddr_node_addr)
build/cooja/mtype884.a(csma.o)
                              build/cooja/mtype884.a(cooja-radio.o) (csma_driver)
build/cooja/mtype884.a(csma-output.o)
                              build/cooja/mtype884.a(csma.o) (csma_output_packet)
build/cooja/mtype884.a(uip-ds6.o)
                              build/cooja/mtype884.a(contiki-main.o) (uip_ds6_get_link_local)
build/cooja/mtype884.a(tcp-socket.o)
                              build/cooja/mtype884.a(mqtt.o) (tcp_socket_register)
build/cooja/mtype884.a(uip-ds6-route.o)
                              build/cooja/mtype884.a(uip-ds6.o) (uip_ds6_route_init)
build/cooja/mtype884.a(tcpip.o)
                              build/cooja/mtype884.a(tcp-socket.o) (tcpip_event)
build/cooja/mtype884.a(uip6.o)
                              build/cooja/mtype884.a(contiki-main.o) (uip_lladdr)
build/cooja/mtype884.a(uip-ds6-nbr.o)
                              build/cooja/mtype884.a(uip-ds6.o) (uip_ds6_neighbors_init)
build/cooja/mtype884.a(uip-nd6.o)
                              build/cooja/mtype884.a(uip6.o) (uip_nd6_init)
build/cooja/mtype884.a(sicslowpan.o)
                              build/cooja/mtype884.a(contiki-main.o) (sicslowpan_driver)
build/cooja/mtype884.a(uiplib.o)
                              build/cooja/mtype884.a(mqtt.o) (uiplib_ip6addrconv)
build/cooja/mtype884.a(rpl.o)
                              build/cooja/mtype884.a(contiki-main.o) (rpl_lite_driver)
build/cooja/mtype884.a(rpl-icmp6.o)
                              build/cooja/mtype884.a(rpl.o) (rpl_icmp6_init)
build/cooja/mtype884.a(rpl-dag-root.o)
                              build/cooja/mtype884.a(rpl.o) (rpl_dag_root_is_root)
build/cooja/mtype884.a(watchdog.o)
                              build/cooja/mtype884.a(contiki-main.o) (watchdog_init)
build/cooja/mtype884.a(int-master.o)
                              build/cooja/mtype884.a(button-hal.o) (int_master_read_and_disable)
build/cooja/mtype884.a(stimer.o)
                              build/cooja/mtype884.a(uip-ds6.o) (stimer_set)
build/cooja/mtype884.a(ringbuf.o)
                              build/cooja/mtype884.a(serial-line.o) (ringbuf_init)
build/cooja/mtype884.a(memb.o)
                              build/cooja/mtype884.a(queuebuf.o) (memb_init)
build/cooja/mtype884.a(assert.o)
                              build/cooja/mtype884.a(csma-output.o) (_xassert)
build/cooja/mtype884.a(nbr-table.o)
                              build/cooja/mtype884.a(uip-ds6-nbr.o) (nbr_table_get_from_lladdr)
build/cooja/mtype884.a(link-stats.o)
                              build/cooja/mtype884.a(sicslowpan.o) (link_stats_packet_sent)
build/cooja/mtype884.a(mac-sequence.o)
                              build/cooja/mtype884.a(csma.o) (mac_sequence_is_duplicate)
build/cooja/mtype884.a(mac.o)
                              build/cooja/mtype884.a(csma-output.o) (mac_call_sent_callback)
build/cooja/mtype884.a(framer-802154.o)
                              build/cooja/mtype884.a(csma.o) (framer_802154)
build/cooja/mtype884.a(frame802154.o)
                              build/cooja/mtype884.a(framer-802154.o) (frame802154_get_pan_id)
build/cooja/mtype884.a(csma-security.o)
                              build/cooja/mtype884.a(csma-output.o) (csma_security_create_frame)
build/cooja/mtype884.a(uipbuf.o)
                              build/cooja/mtype884.a(tcpip.o) (uipbuf_clear)
build/cooja/mtype884.a(uip-icmp6.o)
                              build/cooja/mtype884.a(uip6.o) (uip_icmp6_input)
build/cooja/mtype884.a(uip-sr.o)
                              build/cooja/mtype884.a(rpl-dag-root.o) (uip_sr_num_nodes)
build/cooja/mtype884.a(uip-packetqueue)
                              build/cooja/mtype884.a(uip-ds6-nbr.o) (uip_packetqueue_new)
build/cooja/mtype884.a(rpl-nbr-policy.)
                              build/cooja/mtype884.a(nbr-table.o) (rpl_nbr_gc_get_worst)
build/cooja/mtype884.a(rpl-neighbor.o)
                              build/cooja/mtype884.a(rpl-icmp6.o) (rpl_neighbor_get_ipaddr)
build/cooja/mtype884.a(rpl-dag.o)
                              build/cooja/mtype884.a(rpl.o) (curr_instance)
build/cooja/mtype884.a(rpl-timers.o)
                              build/cooja/mtype884.a(rpl-dag.o) (rpl_timers_schedule_periodic_dis)
build/cooja/mtype884.a(rpl-ext-header.)
                              build/cooja/mtype884.a(rpl.o) (rpl_ext_header_srh_get_next_hop)
build/cooja/mtype884.a(rpl-mrhof.o)
                              build/cooja/mtype884.a(rpl-dag.o) (rpl_mrhof)
/usr/lib/i386-linux-gnu/libc_nonshared.a(stack_chk_fail_local.oS)
                              temperature-sensor.o (__stack_chk_fail_local)

As-needed library included to satisfy reference by file (symbol)

libc.so.6                     temperature-sensor.o (sprintf@@GLIBC_2.0)

Allocating common symbols
Common symbol       size              file

simButtonIsDown     0x1               build/cooja/mtype884.a(buttons.o)
simOutDataBuffer    0x7d              build/cooja/mtype884.a(cooja-radio.o)
uip_ds6_prefix_list
                    0x60              build/cooja/mtype884.a(uip-ds6.o)
linkaddr_node_addr  0x8               build/cooja/mtype884.a(linkaddr.o)
simSerialReceivingFlag
                    0x1               build/cooja/mtype884.a(rs232.o)
simEEPROMData       0x400             build/cooja/mtype884.a(eeprom.o)
periodic_timer      0x20              build/cooja/mtype884.a(link-stats.o)
simLoggedLength     0x4               build/cooja/mtype884.a(cooja-log.o)
simSerialReceivingLength
                    0x4               build/cooja/mtype884.a(rs232.o)
simEtimerPending    0x4               build/cooja/mtype884.a(simEnvChange.o)
uip_slen            0x2               build/cooja/mtype884.a(uip6.o)
uip_ds6_timer_periodic
                    0x10              build/cooja/mtype884.a(uip-ds6.o)
uip_acc32           0x4               build/cooja/mtype884.a(uip6.o)
uip_conns           0x180             build/cooja/mtype884.a(uip6.o)
simVibChanged       0x1               build/cooja/mtype884.a(vib-sensor.o)
simRtimerPending    0x4               build/cooja/mtype884.a(rtimer-arch.o)
button_hal_periodic_event
                    0x1               build/cooja/mtype884.a(button-hal.o)
uip_ds6_netif_addr_list_offset
                    0x1               build/cooja/mtype884.a(uip-ds6.o)
uip_lladdr          0x8               build/cooja/mtype884.a(uip6.o)
button_hal_press_event
                    0x1               build/cooja/mtype884.a(button-hal.o)
simProcessRunValue  0x4               build/cooja/mtype884.a(simEnvChange.o)
serial_line_event_message
                    0x1               build/cooja/mtype884.a(serial-line.o)
uip_appdata         0x4               build/cooja/mtype884.a(uip6.o)
referenceVar        0x4               build/cooja/mtype884.o
simCurrentTime      0x4               build/cooja/mtype884.a(clock.o)
simVibIsActive      0x1               build/cooja/mtype884.a(vib-sensor.o)
uip_ds6_if          0x11c             build/cooja/mtype884.a(uip-ds6.o)
uip_flags           0x1               build/cooja/mtype884.a(uip6.o)
uip_ds6_timer_ra    0x8               build/cooja/mtype884.a(uip-ds6.o)
mqtt_update_event   0x1               build/cooja/mtype884.a(mqtt.o)
simSerialReceivingData
                    0x800             build/cooja/mtype884.a(rs232.o)
simLoggedFlag       0x1               build/cooja/mtype884.a(cooja-log.o)
packetbuf_attrs     0x1a              build/cooja/mtype884.a(packetbuf.o)
uip_ds6_addr_size   0x1               build/cooja/mtype884.a(uip-ds6.o)
uip_aligned_buf     0x500             build/cooja/mtype884.a(uip6.o)
simRtimerCurrentTicks
                    0x8               build/cooja/mtype884.a(rtimer-arch.o)
simRandomSeed       0x4               build/cooja/mtype884.a(moteid.o)
rpl_multicast_addr  0x10              build/cooja/mtype884.a(rpl.o)
simLoggedData       0x2000            build/cooja/mtype884.a(cooja-log.o)
simEtimerNextExpirationTime
                    0x4               build/cooja/mtype884.a(simEnvChange.o)
uip_listenports     0x28              build/cooja/mtype884.a(uip6.o)
uip_len             0x2               build/cooja/mtype884.a(uip6.o)
simButtonChanged    0x1               build/cooja/mtype884.a(buttons.o)
simRtimerNextExpirationTime
                    0x8               build/cooja/mtype884.a(rtimer-arch.o)
simPirIsActive      0x1               build/cooja/mtype884.a(pir-sensor.o)
simInDataBuffer     0x7d              build/cooja/mtype884.a(cooja-radio.o)
simPirChanged       0x1               build/cooja/mtype884.a(pir-sensor.o)
simBeeped           0x1               build/cooja/mtype884.a(beep.o)
tcpip_event         0x1               build/cooja/mtype884.a(tcpip.o)
uip_sappdata        0x4               build/cooja/mtype884.a(uip6.o)
sensors_event       0x1               build/cooja/mtype884.a(sensors.o)
uip_udp_conns       0x100             build/cooja/mtype884.a(uip6.o)
button_hal_release_event
                    0x1               build/cooja/mtype884.a(button-hal.o)
packetbuf_addrs     0x10              build/cooja/mtype884.a(packetbuf.o)
uip_udp_conn        0x4               build/cooja/mtype884.a(uip6.o)
simMoteIDChanged    0x1               build/cooja/mtype884.a(moteid.o)
sensors_flags       0x4               build/cooja/mtype884.o
curr_instance       0x164             build/cooja/mtype884.a(rpl-dag.o)
simMoteID           0x4               build/cooja/mtype884.a(moteid.o)
uip_conn            0x4               build/cooja/mtype884.a(uip6.o)
build/cooja/mtype884.a(uip-ds6.o): dynamic relocation against `uip_ds6_get_link_local' in read-only section `.text'

Discarded input sections

 .note.GNU-stack
                0x0000000000000000        0x0 /usr/lib/gcc/i686-linux-gnu/7/../../../i386-linux-gnu/crti.o
 .group         0x0000000000000000        0x8 /usr/lib/gcc/i686-linux-gnu/7/crtbeginS.o
 .group         0x0000000000000000        0x8 /usr/lib/gcc/i686-linux-gnu/7/crtbeginS.o
 .text.__x86.get_pc_thunk.bx
                0x0000000000000000        0x4 /usr/lib/gcc/i686-linux-gnu/7/crtbeginS.o
 .note.GNU-stack
                0x0000000000000000        0x0 /usr/lib/gcc/i686-linux-gnu/7/crtbeginS.o
 .group         0x0000000000000000        0x8 temperature-sensor.o
 .text.__x86.get_pc_thunk.bx
                0x0000000000000000        0x4 temperature-sensor.o
 .note.GNU-stack
                0x0000000000000000        0x0 temperature-sensor.o
 .group         0x0000000000000000        0x8 build/cooja/mtype884.o
 .group         0x0000000000000000        0x8 build/cooja/mtype884.o
 .group         0x0000000000000000        0x8 build/cooja/mtype884.o
 .text.__x86.get_pc_thunk.dx
                0x0000000000000000        0x4 build/cooja/mtype884.o
 .text.__x86.get_pc_thunk.bx
                0x0000000000000000        0x4 build/cooja/mtype884.o
 .note.GNU-stack
                0x0000000000000000        0x0 build/cooja/mtype884.o
 .group         0x0000000000000000        0x8 build/cooja/mtype884.a(simEnvChange.o)
 .text.__x86.get_pc_thunk.bx
                0x0000000000000000        0x4 build/cooja/mtype884.a(simEnvChange.o)
 .note.GNU-stack
                0x0000000000000000        0x0 build/cooja/mtype884.a(simEnvChange.o)
 .group         0x0000000000000000        0x8 build/cooja/mtype884.a(cooja_mt.o)
 .text.__x86.get_pc_thunk.ax
                0x0000000000000000        0x4 build/cooja/mtype884.a(cooja_mt.o)
 .note.GNU-stack
                0x0000000000000000        0x0 build/cooja/mtype884.a(cooja_mt.o)
 .group         0x0000000000000000        0x8 build/cooja/mtype884.a(cooja_mtarch.o)
 .group         0x0000000000000000        0x8 build/cooja/mtype884.a(cooja_mtarch.o)
 .text.__x86.get_pc_thunk.ax
                0x0000000000000000        0x4 build/cooja/mtype884.a(cooja_mtarch.o)
 .text.__x86.get_pc_thunk.bx
                0x0000000000000000        0x4 build/cooja/mtype884.a(cooja_mtarch.o)
 .note.GNU-stack
                0x0000000000000000        0x0 build/cooja/mtype884.a(cooja_mtarch.o)
 .group         0x0000000000000000        0x8 build/cooja/mtype884.a(rtimer-arch.o)
 .group         0x0000000000000000        0x8 build/cooja/mtype884.a(rtimer-arch.o)
 .text.__x86.get_pc_thunk.ax
                0x0000000000000000        0x4 build/cooja/mtype884.a(rtimer-arch.o)
 .note.GNU-stack
                0x0000000000000000        0x0 build/cooja/mtype884.a(rtimer-arch.o)
 .group         0x0000000000000000        0x8 build/cooja/mtype884.a(beep.o)
 .text.__x86.get_pc_thunk.ax
                0x0000000000000000        0x4 build/cooja/mtype884.a(beep.o)
 .note.GNU-stack
                0x0000000000000000        0x0 build/cooja/mtype884.a(beep.o)
 .group         0x0000000000000000        0x8 build/cooja/mtype884.a(leds-arch.o)
 .group         0x0000000000000000        0x8 build/cooja/mtype884.a(leds-arch.o)
 .text.__x86.get_pc_thunk.ax
                0x0000000000000000        0x4 build/cooja/mtype884.a(leds-arch.o)
 .text.__x86.get_pc_thunk.bx
                0x0000000000000000        0x4 build/cooja/mtype884.a(leds-arch.o)
 .note.GNU-stack
                0x0000000000000000        0x0 build/cooja/mtype884.a(leds-arch.o)
 .group         0x0000000000000000        0x8 build/cooja/mtype884.a(moteid.o)
 .text.__x86.get_pc_thunk.ax
                0x0000000000000000        0x4 build/cooja/mtype884.a(moteid.o)
 .note.GNU-stack
                0x0000000000000000        0x0 build/cooja/mtype884.a(moteid.o)
 .group         0x0000000000000000        0x8 build/cooja/mtype884.a(pir-sensor.o)
 .group         0x0000000000000000        0x8 build/cooja/mtype884.a(pir-sensor.o)
 .text.__x86.get_pc_thunk.ax
                0x0000000000000000        0x4 build/cooja/mtype884.a(pir-sensor.o)
 .text.__x86.get_pc_thunk.bx
                0x0000000000000000        0x4 build/cooja/mtype884.a(pir-sensor.o)
 .note.GNU-stack
                0x0000000000000000        0x0 build/cooja/mtype884.a(pir-sensor.o)
 .group         0x0000000000000000        0x8 build/cooja/mtype884.a(rs232.o)
 .group         0x0000000000000000        0x8 build/cooja/mtype884.a(rs232.o)
 .text.__x86.get_pc_thunk.ax
                0x0000000000000000        0x4 build/cooja/mtype884.a(rs232.o)
 .text.__x86.get_pc_thunk.bx
                0x0000000000000000        0x4 build/cooja/mtype884.a(rs232.o)
 .note.GNU-stack
                0x0000000000000000        0x0 build/cooja/mtype884.a(rs232.o)
 .group         0x0000000000000000        0x8 build/cooja/mtype884.a(vib-sensor.o)
 .group         0x0000000000000000        0x8 build/cooja/mtype884.a(vib-sensor.o)
 .text.__x86.get_pc_thunk.ax
                0x0000000000000000        0x4 build/cooja/mtype884.a(vib-sensor.o)
 .text.__x86.get_pc_thunk.bx
                0x0000000000000000        0x4 build/cooja/mtype884.a(vib-sensor.o)
 .note.GNU-stack
                0x0000000000000000        0x0 build/cooja/mtype884.a(vib-sensor.o)
 .group         0x0000000000000000        0x8 build/cooja/mtype884.a(clock.o)
 .text.__x86.get_pc_thunk.ax
                0x0000000000000000        0x4 build/cooja/mtype884.a(clock.o)
 .note.GNU-stack
                0x0000000000000000        0x0 build/cooja/mtype884.a(clock.o)
 .group         0x0000000000000000        0x8 build/cooja/mtype884.a(cooja-log.o)
 .group         0x0000000000000000        0x8 build/cooja/mtype884.a(cooja-log.o)
 .text.__x86.get_pc_thunk.ax
                0x0000000000000000        0x4 build/cooja/mtype884.a(cooja-log.o)
 .text.__x86.get_pc_thunk.bx
                0x0000000000000000        0x4 build/cooja/mtype884.a(cooja-log.o)
 .note.GNU-stack
                0x0000000000000000        0x0 build/cooja/mtype884.a(cooja-log.o)
 .group         0x0000000000000000        0x8 build/cooja/mtype884.a(cfs-cooja.o)
 .group         0x0000000000000000        0x8 build/cooja/mtype884.a(cfs-cooja.o)
 .text.__x86.get_pc_thunk.ax
                0x0000000000000000        0x4 build/cooja/mtype884.a(cfs-cooja.o)
 .text.__x86.get_pc_thunk.bx
                0x0000000000000000        0x4 build/cooja/mtype884.a(cfs-cooja.o)
 .note.GNU-stack
                0x0000000000000000        0x0 build/cooja/mtype884.a(cfs-cooja.o)
 .group         0x0000000000000000        0x8 build/cooja/mtype884.a(cooja-radio.o)
 .group         0x0000000000000000        0x8 build/cooja/mtype884.a(cooja-radio.o)
 .text.__x86.get_pc_thunk.ax
                0x0000000000000000        0x4 build/cooja/mtype884.a(cooja-radio.o)
 .text.__x86.get_pc_thunk.bx
                0x0000000000000000        0x4 build/cooja/mtype884.a(cooja-radio.o)
 .note.GNU-stack
                0x0000000000000000        0x0 build/cooja/mtype884.a(cooja-radio.o)
 .group         0x0000000000000000        0x8 build/cooja/mtype884.a(eeprom.o)
 .group         0x0000000000000000        0x8 build/cooja/mtype884.a(eeprom.o)
 .text.__x86.get_pc_thunk.ax
                0x0000000000000000        0x4 build/cooja/mtype884.a(eeprom.o)
 .text.__x86.get_pc_thunk.bx
                0x0000000000000000        0x4 build/cooja/mtype884.a(eeprom.o)
 .note.GNU-stack
                0x0000000000000000        0x0 build/cooja/mtype884.a(eeprom.o)
 .group         0x0000000000000000        0x8 build/cooja/mtype884.a(random.o)
 .text.__x86.get_pc_thunk.ax
                0x0000000000000000        0x4 build/cooja/mtype884.a(random.o)
 .note.GNU-stack
                0x0000000000000000        0x0 build/cooja/mtype884.a(random.o)
 .group         0x0000000000000000        0x8 build/cooja/mtype884.a(sensors.o)
 .group         0x0000000000000000        0x8 build/cooja/mtype884.a(sensors.o)
 .text.__x86.get_pc_thunk.ax
                0x0000000000000000        0x4 build/cooja/mtype884.a(sensors.o)
 .text.__x86.get_pc_thunk.bx
                0x0000000000000000        0x4 build/cooja/mtype884.a(sensors.o)
 .note.GNU-stack
                0x0000000000000000        0x0 build/cooja/mtype884.a(sensors.o)
 .group         0x0000000000000000        0x8 build/cooja/mtype884.a(leds.o)
 .group         0x0000000000000000        0x8 build/cooja/mtype884.a(leds.o)
 .text.__x86.get_pc_thunk.ax
                0x0000000000000000        0x4 build/cooja/mtype884.a(leds.o)
 .text.__x86.get_pc_thunk.bx
                0x0000000000000000        0x4 build/cooja/mtype884.a(leds.o)
 .note.GNU-stack
                0x0000000000000000        0x0 build/cooja/mtype884.a(leds.o)
 .group         0x0000000000000000        0x8 build/cooja/mtype884.a(gpio-hal-arch.o)
 .group         0x0000000000000000        0x8 build/cooja/mtype884.a(gpio-hal-arch.o)
 .group         0x0000000000000000        0x8 build/cooja/mtype884.a(gpio-hal-arch.o)
 .text.__x86.get_pc_thunk.ax
                0x0000000000000000        0x4 build/cooja/mtype884.a(gpio-hal-arch.o)
 .text.__x86.get_pc_thunk.dx
                0x0000000000000000        0x4 build/cooja/mtype884.a(gpio-hal-arch.o)
 .text.__x86.get_pc_thunk.bx
                0x0000000000000000        0x4 build/cooja/mtype884.a(gpio-hal-arch.o)
 .note.GNU-stack
                0x0000000000000000        0x0 build/cooja/mtype884.a(gpio-hal-arch.o)
 .group         0x0000000000000000        0x8 build/cooja/mtype884.a(buttons.o)
 .group         0x0000000000000000        0x8 build/cooja/mtype884.a(buttons.o)
 .text.__x86.get_pc_thunk.ax
                0x0000000000000000        0x4 build/cooja/mtype884.a(buttons.o)
 .text.__x86.get_pc_thunk.bx
                0x0000000000000000        0x4 build/cooja/mtype884.a(buttons.o)
 .note.GNU-stack
                0x0000000000000000        0x0 build/cooja/mtype884.a(buttons.o)
 .group         0x0000000000000000        0x8 build/cooja/mtype884.a(mqtt.o)
 .group         0x0000000000000000        0x8 build/cooja/mtype884.a(mqtt.o)
 .group         0x0000000000000000        0x8 build/cooja/mtype884.a(mqtt.o)
 .text.__x86.get_pc_thunk.ax
                0x0000000000000000        0x4 build/cooja/mtype884.a(mqtt.o)
 .text.__x86.get_pc_thunk.dx
                0x0000000000000000        0x4 build/cooja/mtype884.a(mqtt.o)
 .text.__x86.get_pc_thunk.bx
                0x0000000000000000        0x4 build/cooja/mtype884.a(mqtt.o)
 .note.GNU-stack
                0x0000000000000000        0x0 build/cooja/mtype884.a(mqtt.o)
 .group         0x0000000000000000        0x8 build/cooja/mtype884.a(contiki-main.o)
 .text.__x86.get_pc_thunk.bx
                0x0000000000000000        0x4 build/cooja/mtype884.a(contiki-main.o)
 .note.GNU-stack
                0x0000000000000000        0x0 build/cooja/mtype884.a(contiki-main.o)
 .group         0x0000000000000000        0x8 build/cooja/mtype884.a(autostart.o)
 .text.__x86.get_pc_thunk.bx
                0x0000000000000000        0x4 build/cooja/mtype884.a(autostart.o)
 .note.GNU-stack
                0x0000000000000000        0x0 build/cooja/mtype884.a(autostart.o)
 .group         0x0000000000000000        0x8 build/cooja/mtype884.a(ctimer.o)
 .group         0x0000000000000000        0x8 build/cooja/mtype884.a(ctimer.o)
 .text.__x86.get_pc_thunk.ax
                0x0000000000000000        0x4 build/cooja/mtype884.a(ctimer.o)
 .text.__x86.get_pc_thunk.bx
                0x0000000000000000        0x4 build/cooja/mtype884.a(ctimer.o)
 .note.GNU-stack
                0x0000000000000000        0x0 build/cooja/mtype884.a(ctimer.o)
 .group         0x0000000000000000        0x8 build/cooja/mtype884.a(log.o)
 .group         0x0000000000000000        0x8 build/cooja/mtype884.a(log.o)
 .text.__x86.get_pc_thunk.ax
                0x0000000000000000        0x4 build/cooja/mtype884.a(log.o)
 .text.__x86.get_pc_thunk.bx
                0x0000000000000000        0x4 build/cooja/mtype884.a(log.o)
 .note.GNU-stack
                0x0000000000000000        0x0 build/cooja/mtype884.a(log.o)
 .group         0x0000000000000000        0x8 build/cooja/mtype884.a(energest.o)
 .text.__x86.get_pc_thunk.ax
                0x0000000000000000        0x4 build/cooja/mtype884.a(energest.o)
 .note.GNU-stack
                0x0000000000000000        0x0 build/cooja/mtype884.a(energest.o)
 .group         0x0000000000000000        0x8 build/cooja/mtype884.a(etimer.o)
 .group         0x0000000000000000        0x8 build/cooja/mtype884.a(etimer.o)
 .text.__x86.get_pc_thunk.ax
                0x0000000000000000        0x4 build/cooja/mtype884.a(etimer.o)
 .text.__x86.get_pc_thunk.bx
                0x0000000000000000        0x4 build/cooja/mtype884.a(etimer.o)
 .note.GNU-stack
                0x0000000000000000        0x0 build/cooja/mtype884.a(etimer.o)
 .group         0x0000000000000000        0x8 build/cooja/mtype884.a(node-id.o)
 .text.__x86.get_pc_thunk.ax
                0x0000000000000000        0x4 build/cooja/mtype884.a(node-id.o)
 .note.GNU-stack
                0x0000000000000000        0x0 build/cooja/mtype884.a(node-id.o)
 .group         0x0000000000000000        0x8 build/cooja/mtype884.a(rtimer.o)
 .group         0x0000000000000000        0x8 build/cooja/mtype884.a(rtimer.o)
 .group         0x0000000000000000        0x8 build/cooja/mtype884.a(rtimer.o)
 .text.__x86.get_pc_thunk.ax
                0x0000000000000000        0x4 build/cooja/mtype884.a(rtimer.o)
 .text.__x86.get_pc_thunk.cx
                0x0000000000000000        0x4 build/cooja/mtype884.a(rtimer.o)
 .text.__x86.get_pc_thunk.bx
                0x0000000000000000        0x4 build/cooja/mtype884.a(rtimer.o)
 .note.GNU-stack
                0x0000000000000000        0x0 build/cooja/mtype884.a(rtimer.o)
 .group         0x0000000000000000        0x8 build/cooja/mtype884.a(process.o)
 .group         0x0000000000000000        0x8 build/cooja/mtype884.a(process.o)
 .group         0x0000000000000000        0x8 build/cooja/mtype884.a(process.o)
 .text.__x86.get_pc_thunk.ax
                0x0000000000000000        0x4 build/cooja/mtype884.a(process.o)
 .text.__x86.get_pc_thunk.bx
                0x0000000000000000        0x4 build/cooja/mtype884.a(process.o)
 .note.GNU-stack
                0x0000000000000000        0x0 build/cooja/mtype884.a(process.o)
 .group         0x0000000000000000        0x8 build/cooja/mtype884.a(timer.o)
 .text.__x86.get_pc_thunk.ax
                0x0000000000000000        0x4 build/cooja/mtype884.a(timer.o)
 .note.GNU-stack
                0x0000000000000000        0x0 build/cooja/mtype884.a(timer.o)
 .group         0x0000000000000000        0x8 build/cooja/mtype884.a(list.o)
 .text.__x86.get_pc_thunk.ax
                0x0000000000000000        0x4 build/cooja/mtype884.a(list.o)
 .note.GNU-stack
                0x0000000000000000        0x0 build/cooja/mtype884.a(list.o)
 .group         0x0000000000000000        0x8 build/cooja/mtype884.a(button-hal.o)
 .group         0x0000000000000000        0x8 build/cooja/mtype884.a(button-hal.o)
 .text.__x86.get_pc_thunk.ax
                0x0000000000000000        0x4 build/cooja/mtype884.a(button-hal.o)
 .text.__x86.get_pc_thunk.bx
                0x0000000000000000        0x4 build/cooja/mtype884.a(button-hal.o)
 .note.GNU-stack
                0x0000000000000000        0x0 build/cooja/mtype884.a(button-hal.o)
 .group         0x0000000000000000        0x8 build/cooja/mtype884.a(serial-line.o)
 .text.__x86.get_pc_thunk.bx
                0x0000000000000000        0x4 build/cooja/mtype884.a(serial-line.o)
 .note.GNU-stack
                0x0000000000000000        0x0 build/cooja/mtype884.a(serial-line.o)
 .group         0x0000000000000000        0x8 build/cooja/mtype884.a(gpio-hal.o)
 .group         0x0000000000000000        0x8 build/cooja/mtype884.a(gpio-hal.o)
 .text.__x86.get_pc_thunk.ax
                0x0000000000000000        0x4 build/cooja/mtype884.a(gpio-hal.o)
 .text.__x86.get_pc_thunk.bx
                0x0000000000000000        0x4 build/cooja/mtype884.a(gpio-hal.o)
 .note.GNU-stack
                0x0000000000000000        0x0 build/cooja/mtype884.a(gpio-hal.o)
 .group         0x0000000000000000        0x8 build/cooja/mtype884.a(queuebuf.o)
 .group         0x0000000000000000        0x8 build/cooja/mtype884.a(queuebuf.o)
 .text.__x86.get_pc_thunk.ax
                0x0000000000000000        0x4 build/cooja/mtype884.a(queuebuf.o)
 .text.__x86.get_pc_thunk.bx
                0x0000000000000000        0x4 build/cooja/mtype884.a(queuebuf.o)
 .note.GNU-stack
                0x0000000000000000        0x0 build/cooja/mtype884.a(queuebuf.o)
 .group         0x0000000000000000        0x8 build/cooja/mtype884.a(packetbuf.o)
 .group         0x0000000000000000        0x8 build/cooja/mtype884.a(packetbuf.o)
 .text.__x86.get_pc_thunk.ax
                0x0000000000000000        0x4 build/cooja/mtype884.a(packetbuf.o)
 .text.__x86.get_pc_thunk.bx
                0x0000000000000000        0x4 build/cooja/mtype884.a(packetbuf.o)
 .note.GNU-stack
                0x0000000000000000        0x0 build/cooja/mtype884.a(packetbuf.o)
 .group         0x0000000000000000        0x8 build/cooja/mtype884.a(netstack.o)
 .group         0x0000000000000000        0x8 build/cooja/mtype884.a(netstack.o)
 .text.__x86.get_pc_thunk.ax
                0x0000000000000000        0x4 build/cooja/mtype884.a(netstack.o)
 .text.__x86.get_pc_thunk.bx
                0x0000000000000000        0x4 build/cooja/mtype884.a(netstack.o)
 .note.GNU-stack
                0x0000000000000000        0x0 build/cooja/mtype884.a(netstack.o)
 .group         0x0000000000000000        0x8 build/cooja/mtype884.a(linkaddr.o)
 .text.__x86.get_pc_thunk.ax
                0x0000000000000000        0x4 build/cooja/mtype884.a(linkaddr.o)
 .note.GNU-stack
                0x0000000000000000        0x0 build/cooja/mtype884.a(linkaddr.o)
 .group         0x0000000000000000        0x8 build/cooja/mtype884.a(csma.o)
 .group         0x0000000000000000        0x8 build/cooja/mtype884.a(csma.o)
 .text.__x86.get_pc_thunk.ax
                0x0000000000000000        0x4 build/cooja/mtype884.a(csma.o)
 .text.__x86.get_pc_thunk.bx
                0x0000000000000000        0x4 build/cooja/mtype884.a(csma.o)
 .note.GNU-stack
                0x0000000000000000        0x0 build/cooja/mtype884.a(csma.o)
 .group         0x0000000000000000        0x8 build/cooja/mtype884.a(csma-output.o)
 .group         0x0000000000000000        0x8 build/cooja/mtype884.a(csma-output.o)
 .text.__x86.get_pc_thunk.ax
                0x0000000000000000        0x4 build/cooja/mtype884.a(csma-output.o)
 .text.__x86.get_pc_thunk.bx
                0x0000000000000000        0x4 build/cooja/mtype884.a(csma-output.o)
 .note.GNU-stack
                0x0000000000000000        0x0 build/cooja/mtype884.a(csma-output.o)
 .group         0x0000000000000000        0x8 build/cooja/mtype884.a(uip-ds6.o)
 .group         0x0000000000000000        0x8 build/cooja/mtype884.a(uip-ds6.o)
 .text.__x86.get_pc_thunk.ax
                0x0000000000000000        0x4 build/cooja/mtype884.a(uip-ds6.o)
 .text.__x86.get_pc_thunk.bx
                0x0000000000000000        0x4 build/cooja/mtype884.a(uip-ds6.o)
 .note.GNU-stack
                0x0000000000000000        0x0 build/cooja/mtype884.a(uip-ds6.o)
 .group         0x0000000000000000        0x8 build/cooja/mtype884.a(tcp-socket.o)
 .group         0x0000000000000000        0x8 build/cooja/mtype884.a(tcp-socket.o)
 .text.__x86.get_pc_thunk.ax
                0x0000000000000000        0x4 build/cooja/mtype884.a(tcp-socket.o)
 .text.__x86.get_pc_thunk.bx
                0x0000000000000000        0x4 build/cooja/mtype884.a(tcp-socket.o)
 .note.GNU-stack
                0x0000000000000000        0x0 build/cooja/mtype884.a(tcp-socket.o)
 .group         0x0000000000000000        0x8 build/cooja/mtype884.a(uip-ds6-route.o)
 .group         0x0000000000000000        0x8 build/cooja/mtype884.a(uip-ds6-route.o)
 .text.__x86.get_pc_thunk.ax
                0x0000000000000000        0x4 build/cooja/mtype884.a(uip-ds6-route.o)
 .text.__x86.get_pc_thunk.bx
                0x0000000000000000        0x4 build/cooja/mtype884.a(uip-ds6-route.o)
 .note.GNU-stack
                0x0000000000000000        0x0 build/cooja/mtype884.a(uip-ds6-route.o)
 .group         0x0000000000000000        0x8 build/cooja/mtype884.a(tcpip.o)
 .group         0x0000000000000000        0x8 build/cooja/mtype884.a(tcpip.o)
 .text.__x86.get_pc_thunk.ax
                0x0000000000000000        0x4 build/cooja/mtype884.a(tcpip.o)
 .text.__x86.get_pc_thunk.bx
                0x0000000000000000        0x4 build/cooja/mtype884.a(tcpip.o)
 .note.GNU-stack
                0x0000000000000000        0x0 build/cooja/mtype884.a(tcpip.o)
 .group         0x0000000000000000        0x8 build/cooja/mtype884.a(uip6.o)
 .group         0x0000000000000000        0x8 build/cooja/mtype884.a(uip6.o)
 .group         0x0000000000000000        0x8 build/cooja/mtype884.a(uip6.o)
 .text.__x86.get_pc_thunk.ax
                0x0000000000000000        0x4 build/cooja/mtype884.a(uip6.o)
 .text.__x86.get_pc_thunk.bx
                0x0000000000000000        0x4 build/cooja/mtype884.a(uip6.o)
 .text.__x86.get_pc_thunk.si
                0x0000000000000000        0x4 build/cooja/mtype884.a(uip6.o)
 .note.GNU-stack
                0x0000000000000000        0x0 build/cooja/mtype884.a(uip6.o)
 .group         0x0000000000000000        0x8 build/cooja/mtype884.a(uip-ds6-nbr.o)
 .group         0x0000000000000000        0x8 build/cooja/mtype884.a(uip-ds6-nbr.o)
 .text.__x86.get_pc_thunk.ax
                0x0000000000000000        0x4 build/cooja/mtype884.a(uip-ds6-nbr.o)
 .text.__x86.get_pc_thunk.bx
                0x0000000000000000        0x4 build/cooja/mtype884.a(uip-ds6-nbr.o)
 .note.GNU-stack
                0x0000000000000000        0x0 build/cooja/mtype884.a(uip-ds6-nbr.o)
 .group         0x0000000000000000        0x8 build/cooja/mtype884.a(uip-nd6.o)
 .group         0x0000000000000000        0x8 build/cooja/mtype884.a(uip-nd6.o)
 .group         0x0000000000000000        0x8 build/cooja/mtype884.a(uip-nd6.o)
 .text.__x86.get_pc_thunk.ax
                0x0000000000000000        0x4 build/cooja/mtype884.a(uip-nd6.o)
 .text.__x86.get_pc_thunk.cx
                0x0000000000000000        0x4 build/cooja/mtype884.a(uip-nd6.o)
 .text.__x86.get_pc_thunk.bx
                0x0000000000000000        0x4 build/cooja/mtype884.a(uip-nd6.o)
 .note.GNU-stack
                0x0000000000000000        0x0 build/cooja/mtype884.a(uip-nd6.o)
 .group         0x0000000000000000        0x8 build/cooja/mtype884.a(sicslowpan.o)
 .group         0x0000000000000000        0x8 build/cooja/mtype884.a(sicslowpan.o)
 .group         0x0000000000000000        0x8 build/cooja/mtype884.a(sicslowpan.o)
 .text.__x86.get_pc_thunk.ax
                0x0000000000000000        0x4 build/cooja/mtype884.a(sicslowpan.o)
 .text.__x86.get_pc_thunk.dx
                0x0000000000000000        0x4 build/cooja/mtype884.a(sicslowpan.o)
 .text.__x86.get_pc_thunk.bx
                0x0000000000000000        0x4 build/cooja/mtype884.a(sicslowpan.o)
 .note.GNU-stack
                0x0000000000000000        0x0 build/cooja/mtype884.a(sicslowpan.o)
 .group         0x0000000000000000        0x8 build/cooja/mtype884.a(uiplib.o)
 .group         0x0000000000000000        0x8 build/cooja/mtype884.a(uiplib.o)
 .text.__x86.get_pc_thunk.ax
                0x0000000000000000        0x4 build/cooja/mtype884.a(uiplib.o)
 .text.__x86.get_pc_thunk.bx
                0x0000000000000000        0x4 build/cooja/mtype884.a(uiplib.o)
 .note.GNU-stack
                0x0000000000000000        0x0 build/cooja/mtype884.a(uiplib.o)
 .group         0x0000000000000000        0x8 build/cooja/mtype884.a(rpl.o)
 .group         0x0000000000000000        0x8 build/cooja/mtype884.a(rpl.o)
 .text.__x86.get_pc_thunk.ax
                0x0000000000000000        0x4 build/cooja/mtype884.a(rpl.o)
 .text.__x86.get_pc_thunk.bx
                0x0000000000000000        0x4 build/cooja/mtype884.a(rpl.o)
 .note.GNU-stack
                0x0000000000000000        0x0 build/cooja/mtype884.a(rpl.o)
 .group         0x0000000000000000        0x8 build/cooja/mtype884.a(rpl-icmp6.o)
 .group         0x0000000000000000        0x8 build/cooja/mtype884.a(rpl-icmp6.o)
 .text.__x86.get_pc_thunk.ax
                0x0000000000000000        0x4 build/cooja/mtype884.a(rpl-icmp6.o)
 .text.__x86.get_pc_thunk.bx
                0x0000000000000000        0x4 build/cooja/mtype884.a(rpl-icmp6.o)
 .note.GNU-stack
                0x0000000000000000        0x0 build/cooja/mtype884.a(rpl-icmp6.o)
 .group         0x0000000000000000        0x8 build/cooja/mtype884.a(rpl-dag-root.o)
 .group         0x0000000000000000        0x8 build/cooja/mtype884.a(rpl-dag-root.o)
 .text.__x86.get_pc_thunk.ax
                0x0000000000000000        0x4 build/cooja/mtype884.a(rpl-dag-root.o)
 .text.__x86.get_pc_thunk.bx
                0x0000000000000000        0x4 build/cooja/mtype884.a(rpl-dag-root.o)
 .note.GNU-stack
                0x0000000000000000        0x0 build/cooja/mtype884.a(rpl-dag-root.o)
 .group         0x0000000000000000        0x8 build/cooja/mtype884.a(watchdog.o)
 .text.__x86.get_pc_thunk.ax
                0x0000000000000000        0x4 build/cooja/mtype884.a(watchdog.o)
 .note.GNU-stack
                0x0000000000000000        0x0 build/cooja/mtype884.a(watchdog.o)
 .group         0x0000000000000000        0x8 build/cooja/mtype884.a(int-master.o)
 .text.__x86.get_pc_thunk.ax
                0x0000000000000000        0x4 build/cooja/mtype884.a(int-master.o)
 .note.GNU-stack
                0x0000000000000000        0x0 build/cooja/mtype884.a(int-master.o)
 .group         0x0000000000000000        0x8 build/cooja/mtype884.a(stimer.o)
 .text.__x86.get_pc_thunk.ax
                0x0000000000000000        0x4 build/cooja/mtype884.a(stimer.o)
 .note.GNU-stack
                0x0000000000000000        0x0 build/cooja/mtype884.a(stimer.o)
 .group         0x0000000000000000        0x8 build/cooja/mtype884.a(ringbuf.o)
 .text.__x86.get_pc_thunk.ax
                0x0000000000000000        0x4 build/cooja/mtype884.a(ringbuf.o)
 .note.GNU-stack
                0x0000000000000000        0x0 build/cooja/mtype884.a(ringbuf.o)
 .group         0x0000000000000000        0x8 build/cooja/mtype884.a(memb.o)
 .group         0x0000000000000000        0x8 build/cooja/mtype884.a(memb.o)
 .text.__x86.get_pc_thunk.ax
                0x0000000000000000        0x4 build/cooja/mtype884.a(memb.o)
 .text.__x86.get_pc_thunk.bx
                0x0000000000000000        0x4 build/cooja/mtype884.a(memb.o)
 .note.GNU-stack
                0x0000000000000000        0x0 build/cooja/mtype884.a(memb.o)
 .group         0x0000000000000000        0x8 build/cooja/mtype884.a(assert.o)
 .text.__x86.get_pc_thunk.ax
                0x0000000000000000        0x4 build/cooja/mtype884.a(assert.o)
 .note.GNU-stack
                0x0000000000000000        0x0 build/cooja/mtype884.a(assert.o)
 .group         0x0000000000000000        0x8 build/cooja/mtype884.a(nbr-table.o)
 .group         0x0000000000000000        0x8 build/cooja/mtype884.a(nbr-table.o)
 .text.__x86.get_pc_thunk.ax
                0x0000000000000000        0x4 build/cooja/mtype884.a(nbr-table.o)
 .text.__x86.get_pc_thunk.bx
                0x0000000000000000        0x4 build/cooja/mtype884.a(nbr-table.o)
 .note.GNU-stack
                0x0000000000000000        0x0 build/cooja/mtype884.a(nbr-table.o)
 .group         0x0000000000000000        0x8 build/cooja/mtype884.a(link-stats.o)
 .group         0x0000000000000000        0x8 build/cooja/mtype884.a(link-stats.o)
 .text.__x86.get_pc_thunk.ax
                0x0000000000000000        0x4 build/cooja/mtype884.a(link-stats.o)
 .text.__x86.get_pc_thunk.bx
                0x0000000000000000        0x4 build/cooja/mtype884.a(link-stats.o)
 .note.GNU-stack
                0x0000000000000000        0x0 build/cooja/mtype884.a(link-stats.o)
 .group         0x0000000000000000        0x8 build/cooja/mtype884.a(mac-sequence.o)
 .text.__x86.get_pc_thunk.bx
                0x0000000000000000        0x4 build/cooja/mtype884.a(mac-sequence.o)
 .note.GNU-stack
                0x0000000000000000        0x0 build/cooja/mtype884.a(mac-sequence.o)
 .group         0x0000000000000000        0x8 build/cooja/mtype884.a(mac.o)
 .text.__x86.get_pc_thunk.ax
                0x0000000000000000        0x4 build/cooja/mtype884.a(mac.o)
 .note.GNU-stack
                0x0000000000000000        0x0 build/cooja/mtype884.a(mac.o)
 .group         0x0000000000000000        0x8 build/cooja/mtype884.a(framer-802154.o)
 .group         0x0000000000000000        0x8 build/cooja/mtype884.a(framer-802154.o)
 .text.__x86.get_pc_thunk.ax
                0x0000000000000000        0x4 build/cooja/mtype884.a(framer-802154.o)
 .text.__x86.get_pc_thunk.bx
                0x0000000000000000        0x4 build/cooja/mtype884.a(framer-802154.o)
 .note.GNU-stack
                0x0000000000000000        0x0 build/cooja/mtype884.a(framer-802154.o)
 .group         0x0000000000000000        0x8 build/cooja/mtype884.a(frame802154.o)
 .group         0x0000000000000000        0x8 build/cooja/mtype884.a(frame802154.o)
 .text.__x86.get_pc_thunk.ax
                0x0000000000000000        0x4 build/cooja/mtype884.a(frame802154.o)
 .text.__x86.get_pc_thunk.bx
                0x0000000000000000        0x4 build/cooja/mtype884.a(frame802154.o)
 .note.GNU-stack
                0x0000000000000000        0x0 build/cooja/mtype884.a(frame802154.o)
 .group         0x0000000000000000        0x8 build/cooja/mtype884.a(csma-security.o)
 .group         0x0000000000000000        0x8 build/cooja/mtype884.a(csma-security.o)
 .text.__x86.get_pc_thunk.ax
                0x0000000000000000        0x4 build/cooja/mtype884.a(csma-security.o)
 .text.__x86.get_pc_thunk.bx
                0x0000000000000000        0x4 build/cooja/mtype884.a(csma-security.o)
 .note.GNU-stack
                0x0000000000000000        0x0 build/cooja/mtype884.a(csma-security.o)
 .group         0x0000000000000000        0x8 build/cooja/mtype884.a(uipbuf.o)
 .text.__x86.get_pc_thunk.ax
                0x0000000000000000        0x4 build/cooja/mtype884.a(uipbuf.o)
 .note.GNU-stack
                0x0000000000000000        0x0 build/cooja/mtype884.a(uipbuf.o)
 .group         0x0000000000000000        0x8 build/cooja/mtype884.a(uip-icmp6.o)
 .group         0x0000000000000000        0x8 build/cooja/mtype884.a(uip-icmp6.o)
 .text.__x86.get_pc_thunk.ax
                0x0000000000000000        0x4 build/cooja/mtype884.a(uip-icmp6.o)
 .text.__x86.get_pc_thunk.bx
                0x0000000000000000        0x4 build/cooja/mtype884.a(uip-icmp6.o)
 .note.GNU-stack
                0x0000000000000000        0x0 build/cooja/mtype884.a(uip-icmp6.o)
 .group         0x0000000000000000        0x8 build/cooja/mtype884.a(uip-sr.o)
 .group         0x0000000000000000        0x8 build/cooja/mtype884.a(uip-sr.o)
 .text.__x86.get_pc_thunk.ax
                0x0000000000000000        0x4 build/cooja/mtype884.a(uip-sr.o)
 .text.__x86.get_pc_thunk.bx
                0x0000000000000000        0x4 build/cooja/mtype884.a(uip-sr.o)
 .note.GNU-stack
                0x0000000000000000        0x0 build/cooja/mtype884.a(uip-sr.o)
 .group         0x0000000000000000        0x8 build/cooja/mtype884.a(uip-packetqueue)
 .group         0x0000000000000000        0x8 build/cooja/mtype884.a(uip-packetqueue)
 .text.__x86.get_pc_thunk.ax
                0x0000000000000000        0x4 build/cooja/mtype884.a(uip-packetqueue)
 .text.__x86.get_pc_thunk.bx
                0x0000000000000000        0x4 build/cooja/mtype884.a(uip-packetqueue)
 .note.GNU-stack
                0x0000000000000000        0x0 build/cooja/mtype884.a(uip-packetqueue)
 .group         0x0000000000000000        0x8 build/cooja/mtype884.a(rpl-nbr-policy.)
 .group         0x0000000000000000        0x8 build/cooja/mtype884.a(rpl-nbr-policy.)
 .text.__x86.get_pc_thunk.ax
                0x0000000000000000        0x4 build/cooja/mtype884.a(rpl-nbr-policy.)
 .text.__x86.get_pc_thunk.bx
                0x0000000000000000        0x4 build/cooja/mtype884.a(rpl-nbr-policy.)
 .note.GNU-stack
                0x0000000000000000        0x0 build/cooja/mtype884.a(rpl-nbr-policy.)
 .group         0x0000000000000000        0x8 build/cooja/mtype884.a(rpl-neighbor.o)
 .group         0x0000000000000000        0x8 build/cooja/mtype884.a(rpl-neighbor.o)
 .group         0x0000000000000000        0x8 build/cooja/mtype884.a(rpl-neighbor.o)
 .text.__x86.get_pc_thunk.ax
                0x0000000000000000        0x4 build/cooja/mtype884.a(rpl-neighbor.o)
 .text.__x86.get_pc_thunk.bx
                0x0000000000000000        0x4 build/cooja/mtype884.a(rpl-neighbor.o)
 .text.__x86.get_pc_thunk.si
                0x0000000000000000        0x4 build/cooja/mtype884.a(rpl-neighbor.o)
 .note.GNU-stack
                0x0000000000000000        0x0 build/cooja/mtype884.a(rpl-neighbor.o)
 .group         0x0000000000000000        0x8 build/cooja/mtype884.a(rpl-dag.o)
 .group         0x0000000000000000        0x8 build/cooja/mtype884.a(rpl-dag.o)
 .group         0x0000000000000000        0x8 build/cooja/mtype884.a(rpl-dag.o)
 .text.__x86.get_pc_thunk.ax
                0x0000000000000000        0x4 build/cooja/mtype884.a(rpl-dag.o)
 .text.__x86.get_pc_thunk.dx
                0x0000000000000000        0x4 build/cooja/mtype884.a(rpl-dag.o)
 .text.__x86.get_pc_thunk.bx
                0x0000000000000000        0x4 build/cooja/mtype884.a(rpl-dag.o)
 .note.GNU-stack
                0x0000000000000000        0x0 build/cooja/mtype884.a(rpl-dag.o)
 .group         0x0000000000000000        0x8 build/cooja/mtype884.a(rpl-timers.o)
 .group         0x0000000000000000        0x8 build/cooja/mtype884.a(rpl-timers.o)
 .text.__x86.get_pc_thunk.ax
                0x0000000000000000        0x4 build/cooja/mtype884.a(rpl-timers.o)
 .text.__x86.get_pc_thunk.bx
                0x0000000000000000        0x4 build/cooja/mtype884.a(rpl-timers.o)
 .note.GNU-stack
                0x0000000000000000        0x0 build/cooja/mtype884.a(rpl-timers.o)
 .group         0x0000000000000000        0x8 build/cooja/mtype884.a(rpl-ext-header.)
 .group         0x0000000000000000        0x8 build/cooja/mtype884.a(rpl-ext-header.)
 .text.__x86.get_pc_thunk.ax
                0x0000000000000000        0x4 build/cooja/mtype884.a(rpl-ext-header.)
 .text.__x86.get_pc_thunk.bx
                0x0000000000000000        0x4 build/cooja/mtype884.a(rpl-ext-header.)
 .note.GNU-stack
                0x0000000000000000        0x0 build/cooja/mtype884.a(rpl-ext-header.)
 .group         0x0000000000000000        0x8 build/cooja/mtype884.a(rpl-mrhof.o)
 .group         0x0000000000000000        0x8 build/cooja/mtype884.a(rpl-mrhof.o)
 .text.__x86.get_pc_thunk.ax
                0x0000000000000000        0x4 build/cooja/mtype884.a(rpl-mrhof.o)
 .text.__x86.get_pc_thunk.bx
                0x0000000000000000        0x4 build/cooja/mtype884.a(rpl-mrhof.o)
 .note.GNU-stack
                0x0000000000000000        0x0 build/cooja/mtype884.a(rpl-mrhof.o)
 .group         0x0000000000000000        0x8 /usr/lib/i386-linux-gnu/libc_nonshared.a(stack_chk_fail_local.oS)
 .text.__x86.get_pc_thunk.bx
                0x0000000000000000        0x4 /usr/lib/i386-linux-gnu/libc_nonshared.a(stack_chk_fail_local.oS)
 .note.GNU-stack
                0x0000000000000000        0x0 /usr/lib/i386-linux-gnu/libc_nonshared.a(stack_chk_fail_local.oS)
 .note.GNU-stack
                0x0000000000000000        0x0 /usr/lib/gcc/i686-linux-gnu/7/crtendS.o
 .note.GNU-stack
                0x0000000000000000        0x0 /usr/lib/gcc/i686-linux-gnu/7/../../../i386-linux-gnu/crtn.o

Memory Configuration

Name             Origin             Length             Attributes
*default*        0x0000000000000000 0xffffffffffffffff

Linker script and memory map

LOAD /usr/lib/gcc/i686-linux-gnu/7/../../../i386-linux-gnu/crti.o
LOAD /usr/lib/gcc/i686-linux-gnu/7/crtbeginS.o
LOAD temperature-sensor.o
LOAD build/cooja/mtype884.o
LOAD build/cooja/mtype884.a
LOAD /usr/lib/gcc/i686-linux-gnu/7/libgcc.a
LOAD /usr/lib/gcc/i686-linux-gnu/7/libgcc_s.so
START GROUP
LOAD /usr/lib/gcc/i686-linux-gnu/7/libgcc_s.so.1
LOAD /usr/lib/gcc/i686-linux-gnu/7/libgcc.a
END GROUP
LOAD /usr/lib/gcc/i686-linux-gnu/7/../../../i386-linux-gnu/libc.so
START GROUP
LOAD /lib/i386-linux-gnu/libc.so.6
LOAD /usr/lib/i386-linux-gnu/libc_nonshared.a
LOAD /lib/i386-linux-gnu/ld-linux.so.2
END GROUP
LOAD /usr/lib/gcc/i686-linux-gnu/7/libgcc.a
LOAD /usr/lib/gcc/i686-linux-gnu/7/libgcc_s.so
START GROUP
LOAD /usr/lib/gcc/i686-linux-gnu/7/libgcc_s.so.1
LOAD /usr/lib/gcc/i686-linux-gnu/7/libgcc.a
END GROUP
LOAD /usr/lib/gcc/i686-linux-gnu/7/crtendS.o
LOAD /usr/lib/gcc/i686-linux-gnu/7/../../../i386-linux-gnu/crtn.o
                0x0000000000000114                . = (SEGMENT_START ("text-segment", 0x0) + SIZEOF_HEADERS)

.note.gnu.build-id
                0x0000000000000114       0x24
 *(.note.gnu.build-id)
 .note.gnu.build-id
                0x0000000000000114       0x24 /usr/lib/gcc/i686-linux-gnu/7/../../../i386-linux-gnu/crti.o

.hash
 *(.hash)

.gnu.hash       0x0000000000000138     0x14b0
 *(.gnu.hash)
 .gnu.hash      0x0000000000000138     0x14b0 /usr/lib/gcc/i686-linux-gnu/7/../../../i386-linux-gnu/crti.o

.dynsym         0x00000000000015e8     0x2b10
 *(.dynsym)
 .dynsym        0x00000000000015e8     0x2b10 /usr/lib/gcc/i686-linux-gnu/7/../../../i386-linux-gnu/crti.o

.dynstr         0x00000000000040f8     0x309b
 *(.dynstr)
 .dynstr        0x00000000000040f8     0x309b /usr/lib/gcc/i686-linux-gnu/7/../../../i386-linux-gnu/crti.o

.gnu.version    0x0000000000007194      0x562
 *(.gnu.version)
 .gnu.version   0x0000000000007194      0x562 /usr/lib/gcc/i686-linux-gnu/7/../../../i386-linux-gnu/crti.o

.gnu.version_d  0x00000000000076f8        0x0
 *(.gnu.version_d)
 .gnu.version_d
                0x00000000000076f8        0x0 /usr/lib/gcc/i686-linux-gnu/7/../../../i386-linux-gnu/crti.o

.gnu.version_r  0x00000000000076f8       0x40
 *(.gnu.version_r)
 .gnu.version_r
                0x00000000000076f8       0x40 /usr/lib/gcc/i686-linux-gnu/7/../../../i386-linux-gnu/crti.o

.rel.dyn        0x0000000000007738      0xe90
 *(.rel.init)
 .rel.init      0x0000000000007738        0x0 /usr/lib/gcc/i686-linux-gnu/7/../../../i386-linux-gnu/crti.o
 *(.rel.text .rel.text.* .rel.gnu.linkonce.t.*)
 .rel.text      0x0000000000007738      0x588 /usr/lib/gcc/i686-linux-gnu/7/../../../i386-linux-gnu/crti.o
 *(.rel.fini)
 .rel.fini      0x0000000000007cc0        0x0 /usr/lib/gcc/i686-linux-gnu/7/../../../i386-linux-gnu/crti.o
 *(.rel.rodata .rel.rodata.* .rel.gnu.linkonce.r.*)
 *(.rel.data.rel.ro .rel.data.rel.ro.* .rel.gnu.linkonce.d.rel.ro.*)
 .rel.data.rel.ro.local
                0x0000000000007cc0      0x208 /usr/lib/gcc/i686-linux-gnu/7/../../../i386-linux-gnu/crti.o
 .rel.data.rel.ro
                0x0000000000007ec8       0xb0 /usr/lib/gcc/i686-linux-gnu/7/../../../i386-linux-gnu/crti.o
 *(.rel.data .rel.data.* .rel.gnu.linkonce.d.*)
 .rel.data.rel.local
                0x0000000000007f78      0x318 /usr/lib/gcc/i686-linux-gnu/7/../../../i386-linux-gnu/crti.o
 .rel.data.rel  0x0000000000008290       0x78 /usr/lib/gcc/i686-linux-gnu/7/../../../i386-linux-gnu/crti.o
 *(.rel.tdata .rel.tdata.* .rel.gnu.linkonce.td.*)
 *(.rel.tbss .rel.tbss.* .rel.gnu.linkonce.tb.*)
 *(.rel.ctors)
 *(.rel.dtors)
 *(.rel.got)
 .rel.got       0x0000000000008308      0x2b0 /usr/lib/gcc/i686-linux-gnu/7/../../../i386-linux-gnu/crti.o
 *(.rel.bss .rel.bss.* .rel.gnu.linkonce.b.*)
 *(.rel.ifunc)
 .rel.ifunc     0x00000000000085b8        0x0 /usr/lib/gcc/i686-linux-gnu/7/../../../i386-linux-gnu/crti.o
 .rel.fini_array
                0x00000000000085b8        0x8 /usr/lib/gcc/i686-linux-gnu/7/../../../i386-linux-gnu/crti.o
 .rel.init_array
                0x00000000000085c0        0x8 /usr/lib/gcc/i686-linux-gnu/7/../../../i386-linux-gnu/crti.o

.rel.plt        0x00000000000085c8      0x9d8
 *(.rel.plt)
 .rel.plt       0x00000000000085c8      0x9d8 /usr/lib/gcc/i686-linux-gnu/7/../../../i386-linux-gnu/crti.o
 *(.rel.iplt)

.init           0x0000000000008fa0       0x23
 *(SORT_NONE(.init))
 .init          0x0000000000008fa0       0x1e /usr/lib/gcc/i686-linux-gnu/7/../../../i386-linux-gnu/crti.o
                0x0000000000008fa0                _init
 .init          0x0000000000008fbe        0x5 /usr/lib/gcc/i686-linux-gnu/7/../../../i386-linux-gnu/crtn.o

.plt            0x0000000000008fd0     0x13c0
 *(.plt)
 .plt           0x0000000000008fd0     0x13c0 /usr/lib/gcc/i686-linux-gnu/7/../../../i386-linux-gnu/crti.o
 *(.iplt)

.plt.got        0x000000000000a390       0x18
 *(.plt.got)
 .plt.got       0x000000000000a390       0x18 /usr/lib/gcc/i686-linux-gnu/7/../../../i386-linux-gnu/crti.o

.plt.sec
 *(.plt.sec)

.text           0x000000000000a3b0    0x1e714
 *(.text.unlikely .text.*_unlikely .text.unlikely.*)
 *(.text.exit .text.exit.*)
 *(.text.startup .text.startup.*)
 *(.text.hot .text.hot.*)
 *(.text .stub .text.* .gnu.linkonce.t.*)
 .text          0x000000000000a3b0        0x0 /usr/lib/gcc/i686-linux-gnu/7/../../../i386-linux-gnu/crti.o
 .gnu.linkonce.t.__x86.get_pc_thunk.bx
                0x000000000000a3b0        0x4 /usr/lib/gcc/i686-linux-gnu/7/../../../i386-linux-gnu/crti.o
                0x000000000000a3b0                __x86.get_pc_thunk.bx
 *fill*         0x000000000000a3b4        0xc 
 .text          0x000000000000a3c0       0xe9 /usr/lib/gcc/i686-linux-gnu/7/crtbeginS.o
 .text.__x86.get_pc_thunk.dx
                0x000000000000a4a9        0x4 /usr/lib/gcc/i686-linux-gnu/7/crtbeginS.o
                0x000000000000a4a9                __x86.get_pc_thunk.dx
 .text          0x000000000000a4ad      0x761 temperature-sensor.o
 .text          0x000000000000ac0e      0x36b build/cooja/mtype884.o
                0x000000000000acc0                platform_init_stage_one
                0x000000000000ace3                platform_init_stage_two
                0x000000000000ad06                platform_init_stage_three
                0x000000000000ad29                platform_main_loop
                0x000000000000adcf                Java_org_contikios_cooja_corecomm_Lib14_init
                0x000000000000ae1d                Java_org_contikios_cooja_corecomm_Lib14_getMemory
                0x000000000000ae5d                Java_org_contikios_cooja_corecomm_Lib14_setMemory
                0x000000000000aece                Java_org_contikios_cooja_corecomm_Lib14_tick
                0x000000000000af58                Java_org_contikios_cooja_corecomm_Lib14_setReferenceAddress
 .text.__x86.get_pc_thunk.ax
                0x000000000000af79        0x4 build/cooja/mtype884.o
                0x000000000000af79                __x86.get_pc_thunk.ax
 .text          0x000000000000af7d       0x8d build/cooja/mtype884.a(simEnvChange.o)
                0x000000000000af7d                doActionsBeforeTick
                0x000000000000afc3                doActionsAfterTick
 .text          0x000000000000b00a       0xb6 build/cooja/mtype884.a(cooja_mt.o)
                0x000000000000b00a                cooja_mt_start
                0x000000000000b044                cooja_mt_exec
                0x000000000000b08b                cooja_mt_yield
 .text          0x000000000000b0c0       0xf2 build/cooja/mtype884.a(cooja_mtarch.o)
                0x000000000000b0c0                cooja_mtarch_start
                0x000000000000b144                cooja_sw
                0x000000000000b172                cooja_mtarch_exec
                0x000000000000b19d                cooja_mtarch_yield
 .text          0x000000000000b1b2      0x127 build/cooja/mtype884.a(rtimer-arch.o)
                0x000000000000b1b2                rtimer_arch_init
                0x000000000000b1e1                rtimer_arch_schedule
                0x000000000000b223                rtimer_arch_next
                0x000000000000b23d                rtimer_arch_pending
                0x000000000000b254                rtimer_arch_check
                0x000000000000b2bf                rtimer_arch_now
 .text.__x86.get_pc_thunk.cx
                0x000000000000b2d9        0x4 build/cooja/mtype884.a(rtimer-arch.o)
                0x000000000000b2d9                __x86.get_pc_thunk.cx
 .text          0x000000000000b2dd      0x101 build/cooja/mtype884.a(beep.o)
                0x000000000000b2dd                beep_alarm
                0x000000000000b2f6                beep_beep
                0x000000000000b30f                beep
                0x000000000000b328                beep_down
                0x000000000000b341                beep_on
                0x000000000000b35a                beep_off
                0x000000000000b373                beep_spinup
                0x000000000000b38c                beep_quick
                0x000000000000b3a5                beep_long
 .text          0x000000000000b3de       0x9f build/cooja/mtype884.a(leds-arch.o)
                0x000000000000b402                leds_arch_init
 .text          0x000000000000b47d       0x56 build/cooja/mtype884.a(moteid.o)
 .text          0x000000000000b4d3      0x101 build/cooja/mtype884.a(pir-sensor.o)
 .text          0x000000000000b5d4      0x1cc build/cooja/mtype884.a(rs232.o)
                0x000000000000b5d4                rs232_init
                0x000000000000b5e4                rs232_set_speed
                0x000000000000b5fd                rs232_set_input
                0x000000000000b616                rs232_send
                0x000000000000b64c                rs232_print
                0x000000000000b67a                slip_arch_writeb
 .text          0x000000000000b7a0      0x101 build/cooja/mtype884.a(vib-sensor.o)
 .text          0x000000000000b8a1       0x7a build/cooja/mtype884.a(clock.o)
                0x000000000000b8a1                clock_init
                0x000000000000b8b1                clock_time
                0x000000000000b8c8                clock_seconds
                0x000000000000b8eb                clock_delay
 .text          0x000000000000b91b      0x2b5 build/cooja/mtype884.a(cooja-log.o)
                0x000000000000b91b                simlog_char
                0x000000000000b97f                simlog
                0x000000000000ba19                log_message
                0x000000000000ba68                log_set_putchar_with_slip
                0x000000000000ba81                log_putchar
                0x000000000000bb0c                log_puts
                0x000000000000bb3e                log_printf
 .text          0x000000000000bbd0      0x36c build/cooja/mtype884.a(cfs-cooja.o)
                0x000000000000bbd0                cfs_open
                0x000000000000bc48                cfs_close
                0x000000000000bc5f                cfs_read
                0x000000000000bd13                cfs_write
                0x000000000000be11                cfs_seek
                0x000000000000beae                cfs_remove
                0x000000000000bee4                cfs_opendir
                0x000000000000bef8                cfs_readdir
                0x000000000000bf0c                cfs_closedir
 .text          0x000000000000bf3c      0x78b build/cooja/mtype884.a(cooja-radio.o)
                0x000000000000bfaa                radio_set_channel
                0x000000000000bfc3                radio_set_txpower
                0x000000000000bfe6                radio_signal_strength_last
                0x000000000000bffb                radio_signal_strength_current
                0x000000000000c010                radio_LQI
 .text          0x000000000000c6c7      0x130 build/cooja/mtype884.a(eeprom.o)
                0x000000000000c6c7                eeprom_init
                0x000000000000c6d7                eeprom_read
                0x000000000000c757                eeprom_write
 .text          0x000000000000c7f7       0x4e build/cooja/mtype884.a(random.o)
                0x000000000000c7f7                random_init
                0x000000000000c827                random_rand
 .text          0x000000000000c845      0x332 build/cooja/mtype884.a(sensors.o)
                0x000000000000c88c                sensors_first
                0x000000000000c8a3                sensors_next
                0x000000000000c8ce                sensors_changed
                0x000000000000c91b                sensors_find
 .text          0x000000000000cb77      0x3fc build/cooja/mtype884.a(leds.o)
                0x000000000000cb77                leds_init
                0x000000000000cbcf                leds_single_on
                0x000000000000cc47                leds_single_off
                0x000000000000ccbf                leds_single_toggle
                0x000000000000cd03                leds_on
                0x000000000000cd9b                leds_off
                0x000000000000ce33                leds_toggle
                0x000000000000ce99                leds_set
                0x000000000000cecf                leds_get
 .text          0x000000000000cf73      0x401 build/cooja/mtype884.a(gpio-hal-arch.o)
                0x000000000000cf73                gpio_hal_arch_register_pin_callback
                0x000000000000cff4                gpio_hal_arch_init
                0x000000000000d04e                gpio_hal_arch_no_port_interrupt_enable
                0x000000000000d088                gpio_hal_arch_no_port_interrupt_disable
                0x000000000000d0c2                gpio_hal_arch_no_port_pin_cfg_set
                0x000000000000d0f1                gpio_hal_arch_no_port_pin_cfg_get
                0x000000000000d121                gpio_hal_arch_no_port_pin_set_input
                0x000000000000d13d                gpio_hal_arch_no_port_pin_set_output
                0x000000000000d159                gpio_hal_arch_no_port_set_pin
                0x000000000000d184                gpio_hal_arch_no_port_clear_pin
                0x000000000000d1af                gpio_hal_arch_no_port_read_pin
                0x000000000000d1e1                gpio_hal_arch_no_port_write_pin
                0x000000000000d215                gpio_hal_arch_no_port_set_pins
                0x000000000000d266                gpio_hal_arch_no_port_clear_pins
                0x000000000000d2b7                gpio_hal_arch_no_port_read_pins
                0x000000000000d30a                gpio_hal_arch_no_port_write_pins
 .text          0x000000000000d374       0xc6 build/cooja/mtype884.a(buttons.o)
 .text          0x000000000000d43a     0x3c24 build/cooja/mtype884.a(mqtt.o)
                0x000000000000d865                mqtt_decode_var_byte_int
                0x000000000000d958                mqtt_encode_var_byte_int
                0x000000000001097b                mqtt_init
                0x0000000000010a66                mqtt_register
                0x0000000000010b13                mqtt_connect
                0x0000000000010c57                mqtt_disconnect
                0x0000000000010ca7                mqtt_subscribe
                0x0000000000010d8b                mqtt_unsubscribe
                0x0000000000010e63                mqtt_publish
                0x0000000000010f6b                mqtt_set_username_password
                0x0000000000011000                mqtt_set_last_will
 .text          0x000000000001105e      0x3c1 build/cooja/mtype884.a(contiki-main.o)
                0x000000000001105e                main
 .text          0x000000000001141f       0xb0 build/cooja/mtype884.a(autostart.o)
                0x000000000001141f                autostart_start
                0x0000000000011478                autostart_exit
 .text          0x00000000000114cf      0x400 build/cooja/mtype884.a(ctimer.o)
                0x0000000000011612                ctimer_init
                0x0000000000011657                ctimer_set
                0x000000000001168a                ctimer_set_with_process
                0x0000000000011721                ctimer_reset
                0x000000000001178f                ctimer_restart
                0x00000000000117fd                ctimer_stop
                0x000000000001185d                ctimer_expired
 .text          0x00000000000118cf      0x4a3 build/cooja/mtype884.a(log.o)
                0x00000000000118cf                log_6addr
                0x0000000000011933                log_6addr_compact_snprint
                0x00000000000119f3                log_6addr_compact
                0x0000000000011a57                log_lladdr
                0x0000000000011ade                log_lladdr_compact
                0x0000000000011b5b                log_bytes
                0x0000000000011baf                log_set_level
                0x0000000000011c8d                log_get_level
                0x0000000000011d1e                log_level_to_str
 .text          0x0000000000011d72       0x39 build/cooja/mtype884.a(energest.o)
                0x0000000000011d72                energest_init
                0x0000000000011d82                energest_flush
                0x0000000000011d92                energest_get_total_time
 .text          0x0000000000011dab      0x527 build/cooja/mtype884.a(etimer.o)
                0x0000000000012000                etimer_request_poll
                0x00000000000120b1                etimer_set
                0x00000000000120ea                etimer_reset_with_new_interval
                0x0000000000012129                etimer_reset
                0x000000000001215f                etimer_restart
                0x0000000000012195                etimer_adjust
                0x00000000000121bc                etimer_expired
                0x00000000000121d9                etimer_expiration_time
                0x00000000000121f5                etimer_start_time
                0x0000000000012209                etimer_pending
                0x0000000000012226                etimer_next_expiration_time
                0x000000000001224e                etimer_stop
 .text          0x00000000000122d2       0x36 build/cooja/mtype884.a(node-id.o)
                0x00000000000122d2                node_id_init
 .text          0x0000000000012308      0x122 build/cooja/mtype884.a(rtimer.o)
                0x0000000000012308                rtimer_init
                0x0000000000012327                rtimer_set
                0x00000000000123b5                rtimer_run_next
 .text          0x000000000001242a      0x5cb build/cooja/mtype884.a(process.o)
                0x000000000001242a                process_alloc_event
                0x000000000001244b                process_start
                0x0000000000012650                process_exit
                0x0000000000012678                process_init
                0x0000000000012840                process_run
                0x0000000000012883                process_nevents
                0x00000000000128a8                process_post
                0x0000000000012955                process_post_synch
                0x000000000001299b                process_poll
                0x00000000000129d7                process_is_running
 .text.__x86.get_pc_thunk.si
                0x00000000000129f5        0x4 build/cooja/mtype884.a(process.o)
                0x00000000000129f5                __x86.get_pc_thunk.si
 .text          0x00000000000129f9       0xf6 build/cooja/mtype884.a(timer.o)
                0x00000000000129f9                timer_set
                0x0000000000012a28                timer_reset
                0x0000000000012a5f                timer_restart
                0x0000000000012a85                timer_expired
                0x0000000000012ac3                timer_remaining
 .text          0x0000000000012aef      0x311 build/cooja/mtype884.a(list.o)
                0x0000000000012aef                list_init
                0x0000000000012b08                list_head
                0x0000000000012b1c                list_copy
                0x0000000000012b36                list_tail
                0x0000000000012b76                list_add
                0x0000000000012bcc                list_push
                0x0000000000012c02                list_chop
                0x0000000000012c76                list_pop
                0x0000000000012ca8                list_remove
                0x0000000000012d1a                list_length
                0x0000000000012d52                list_insert
                0x0000000000012da1                list_item_next
                0x0000000000012dc2                list_contains
 .text          0x0000000000012e00      0x566 build/cooja/mtype884.a(button-hal.o)
                0x0000000000012ff4                button_hal_get_by_id
                0x000000000001303e                button_hal_get_by_index
                0x0000000000013078                button_hal_get_state
                0x00000000000130da                button_hal_init
 .text          0x0000000000013366      0x242 build/cooja/mtype884.a(serial-line.o)
                0x0000000000013366                serial_line_input_byte
                0x000000000001355e                serial_line_init
 .text          0x00000000000135a8      0x1d6 build/cooja/mtype884.a(gpio-hal.o)
                0x00000000000135a8                gpio_hal_register_handler
                0x00000000000135d6                gpio_hal_event_handler
                0x0000000000013643                gpio_hal_init
                0x0000000000013672                gpio_hal_arch_port_toggle_pin
                0x00000000000136bd                gpio_hal_arch_port_toggle_pins
                0x00000000000136fa                gpio_hal_arch_no_port_toggle_pin
                0x0000000000013747                gpio_hal_arch_no_port_toggle_pins
 .text          0x000000000001377e      0x3a9 build/cooja/mtype884.a(queuebuf.o)
                0x0000000000013792                queuebuf_init
                0x00000000000137ce                queuebuf_numfree
                0x00000000000137f8                queuebuf_new_from_packetbuf
                0x00000000000138ac                queuebuf_update_attr_from_packetbuf
                0x00000000000138f0                queuebuf_update_from_packetbuf
                0x000000000001394f                queuebuf_free
                0x00000000000139ad                queuebuf_to_packetbuf
                0x0000000000013a2a                queuebuf_dataptr
                0x0000000000013a76                queuebuf_datalen
                0x0000000000013aa3                queuebuf_addr
                0x0000000000013ae2                queuebuf_attr
                0x0000000000013b17                queuebuf_debug_print
 .text          0x0000000000013b27      0x4dd build/cooja/mtype884.a(packetbuf.o)
                0x0000000000013b27                packetbuf_clear
                0x0000000000013b5d                packetbuf_copyfrom
                0x0000000000013bbd                packetbuf_copyto
                0x0000000000013c5b                packetbuf_hdralloc
                0x0000000000013ceb                packetbuf_hdrreduce
                0x0000000000013d3d                packetbuf_set_datalen
                0x0000000000013d62                packetbuf_dataptr
                0x0000000000013d89                packetbuf_hdrptr
                0x0000000000013d9e                packetbuf_datalen
                0x0000000000013db4                packetbuf_hdrlen
                0x0000000000013dd3                packetbuf_totlen
                0x0000000000013df3                packetbuf_remaininglen
                0x0000000000013e10                packetbuf_attr_clear
                0x0000000000013e76                packetbuf_attr_copyto
                0x0000000000013ebc                packetbuf_attr_copyfrom
                0x0000000000013f02                packetbuf_set_attr
                0x0000000000013f38                packetbuf_attr
                0x0000000000013f5e                packetbuf_set_addr
                0x0000000000013fa6                packetbuf_addr
                0x0000000000013fd0                packetbuf_holds_broadcast
 .text          0x0000000000014004      0x13c build/cooja/mtype884.a(netstack.o)
                0x0000000000014004                netstack_process_ip_callback
                0x00000000000140a5                netstack_ip_packet_processor_add
                0x00000000000140d9                uip_ds6_ip_packet_processor_rm
                0x0000000000014107                netstack_init
 .text          0x0000000000014140       0x75 build/cooja/mtype884.a(linkaddr.o)
                0x0000000000014140                linkaddr_copy
                0x0000000000014160                linkaddr_cmp
                0x0000000000014193                linkaddr_set_node_addr
 .text          0x00000000000141b5      0x2ae build/cooja/mtype884.a(csma.o)
 .text          0x0000000000014463      0xa6f build/cooja/mtype884.a(csma-output.o)
                0x0000000000014bd5                csma_output_packet
                0x0000000000014e84                csma_output_init
 .text          0x0000000000014ed2      0xe47 build/cooja/mtype884.a(uip-ds6.o)
                0x0000000000014ed2                uip_ds6_default_prefix
                0x0000000000014ee7                uip_ds6_set_default_prefix
                0x0000000000014f1d                uip_ds6_init
                0x00000000000151b8                uip_ds6_periodic
                0x0000000000015260                uip_ds6_list_loop
                0x000000000001532f                uip_ds6_prefix_add
                0x00000000000153f6                uip_ds6_prefix_rm
                0x0000000000015413                uip_ds6_prefix_lookup
                0x0000000000015466                uip_ds6_is_addr_onlink
                0x00000000000154f3                uip_ds6_addr_add
                0x0000000000015635                uip_ds6_addr_rm
                0x00000000000156f4                uip_ds6_addr_lookup
                0x0000000000015744                uip_ds6_get_link_local
                0x00000000000157e2                uip_ds6_get_global
                0x0000000000015880                uip_ds6_maddr_add
                0x00000000000158fc                uip_ds6_maddr_rm
                0x0000000000015919                uip_ds6_maddr_lookup
                0x000000000001596c                uip_ds6_aaddr_add
                0x00000000000159e5                uip_ds6_aaddr_rm
                0x0000000000015a02                uip_ds6_aaddr_lookup
                0x0000000000015a52                uip_ds6_select_src
                0x0000000000015bc0                uip_ds6_set_addr_iid
                0x0000000000015bf5                uip_ds6_set_lladdr_from_iid
                0x0000000000015c28                get_match_length
                0x0000000000015cc3                uip_ds6_compute_reachable_time
 .text          0x0000000000015d19      0xb4d build/cooja/mtype884.a(tcp-socket.o)
                0x0000000000016430                tcp_socket_register
                0x00000000000164d1                tcp_socket_connect
                0x0000000000016584                tcp_socket_listen
                0x0000000000016614                tcp_socket_unlisten
                0x00000000000166a1                tcp_socket_send
                0x0000000000016751                tcp_socket_send_str
                0x0000000000016789                tcp_socket_close
                0x00000000000167bc                tcp_socket_unregister
                0x0000000000016826                tcp_socket_max_sendlen
                0x000000000001684d                tcp_socket_queuelen
 .text          0x0000000000016866      0x453 build/cooja/mtype884.a(uip-ds6-route.o)
                0x00000000000168c8                uip_ds6_route_init
                0x0000000000016904                uip_ds6_route_count_nexthop_neighbors
                0x0000000000016918                uip_ds6_route_nexthop
                0x000000000001692c                uip_ds6_route_head
                0x0000000000016940                uip_ds6_route_next
                0x0000000000016954                uip_ds6_route_is_nexthop
                0x0000000000016968                uip_ds6_route_num_routes
                0x000000000001697c                uip_ds6_route_lookup
                0x0000000000016990                uip_ds6_route_add
                0x00000000000169ad                uip_ds6_route_rm
                0x00000000000169bd                uip_ds6_route_rm_by_nexthop
                0x00000000000169cd                uip_ds6_defrt_head
                0x00000000000169f7                uip_ds6_defrt_add
                0x0000000000016ab7                uip_ds6_defrt_rm
                0x0000000000016b30                uip_ds6_defrt_lookup
                0x0000000000016ba7                uip_ds6_defrt_choose
                0x0000000000016c2d                uip_ds6_defrt_periodic
 .text          0x0000000000016cb9      0xc55 build/cooja/mtype884.a(tcpip.o)
                0x0000000000016cdf                tcpip_output
                0x0000000000016e0a                tcp_connect
                0x0000000000016e72                tcp_unlisten
                0x0000000000016ee7                tcp_listen
                0x0000000000016f59                tcp_attach
                0x0000000000016f7b                udp_attach
                0x0000000000016f9d                udp_new
                0x0000000000016ff7                udp_broadcast_new
                0x00000000000172c9                tcpip_input
                0x00000000000174bf                tcpip_ipv6_output
                0x00000000000176fb                tcpip_poll_udp
                0x000000000001772b                tcpip_poll_tcp
                0x000000000001775b                tcpip_uipcall
 .text          0x000000000001790e     0x33b5 build/cooja/mtype884.a(uip6.o)
                0x000000000001790e                uip_add32
                0x0000000000017af9                uip_chksum
                0x0000000000017bf1                uip_icmp6chksum
                0x0000000000017c10                uip_tcpchksum
                0x0000000000017c2f                uip_udpchksum
                0x0000000000017c4e                uip_init
                0x0000000000017cfc                uip_connect
                0x0000000000017e99                uip_remove_ext_hdr
                0x0000000000017f94                uip_udp_new
                0x00000000000180d9                uip_unlisten
                0x0000000000018129                uip_listen
                0x0000000000018439                uip_process
                0x000000000001ab53                uip_htons
                0x000000000001ab7f                uip_htonl
                0x000000000001abc9                uip_send
 .text          0x000000000001acc3      0x43e build/cooja/mtype884.a(uip-ds6-nbr.o)
                0x000000000001acc3                uip_ds6_neighbors_init
                0x000000000001acf9                uip_ds6_nbr_add
                0x000000000001ad93                uip_ds6_nbr_rm
                0x000000000001adf2                uip_ds6_nbr_update_ll
                0x000000000001aeef                uip_ds6_nbr_get_ipaddr
                0x000000000001af0e                uip_ds6_nbr_get_ll
                0x000000000001af3b                uip_ds6_nbr_num
                0x000000000001af95                uip_ds6_nbr_head
                0x000000000001afbf                uip_ds6_nbr_next
                0x000000000001afec                uip_ds6_nbr_lookup
                0x000000000001b053                uip_ds6_nbr_ll_lookup
                0x000000000001b080                uip_ds6_nbr_ipaddr_from_lladdr
                0x000000000001b0b3                uip_ds6_nbr_lladdr_from_ipaddr
                0x000000000001b0f1                uip_ds6_link_callback
 .text          0x000000000001b101      0x810 build/cooja/mtype884.a(uip-nd6.o)
                0x000000000001b8e6                uip_nd6_init
 .text          0x000000000001b911     0x33b0 build/cooja/mtype884.a(sicslowpan.o)
                0x000000000001c00f                netstack_sniffer_add
                0x000000000001c028                netstack_sniffer_remove
                0x000000000001ec80                sicslowpan_init
                0x000000000001ecac                sicslowpan_get_last_rssi
 .text          0x000000000001ecc1      0x51a build/cooja/mtype884.a(uiplib.o)
                0x000000000001ecc1                uiplib_ip6addrconv
                0x000000000001ee87                uiplib_ip4addrconv
                0x000000000001ef54                uiplib_ipaddr_print
                0x000000000001efb8                uiplib_ipaddr_snprint
 .text          0x000000000001f1db      0x610 build/cooja/mtype884.a(rpl.o)
                0x000000000001f1db                rpl_lollipop_greater_than
                0x000000000001f23e                rpl_get_global_address
                0x000000000001f374                rpl_link_callback
                0x000000000001f3d7                rpl_has_joined
                0x000000000001f40d                rpl_is_reachable
                0x000000000001f4b0                rpl_reset_prefix
                0x000000000001f52c                rpl_set_prefix_from_addr
                0x000000000001f63e                rpl_set_prefix
                0x000000000001f7b2                rpl_set_leaf_only
                0x000000000001f7d5                rpl_get_leaf_only
 .text          0x000000000001f7eb     0x1491 build/cooja/mtype884.a(rpl-icmp6.o)
                0x000000000001f948                rpl_icmp6_update_nbr_table
                0x000000000001f9fa                rpl_icmp6_dis_output
                0x000000000002000f                rpl_icmp6_dio_output
                0x0000000000020868                rpl_icmp6_dao_output
                0x0000000000020b95                rpl_icmp6_dao_ack_output
                0x0000000000020c1c                rpl_icmp6_init
 .text          0x0000000000020c7c      0x2e4 build/cooja/mtype884.a(rpl-dag-root.o)
                0x0000000000020c7c                rpl_dag_root_print_links
                0x0000000000020dd5                rpl_dag_root_set_prefix
                0x0000000000020e10                rpl_dag_root_start
                0x0000000000020f1e                rpl_dag_root_is_root
 .text          0x0000000000020f60       0x6b build/cooja/mtype884.a(watchdog.o)
                0x0000000000020f60                watchdog_init
                0x0000000000020f70                watchdog_start
                0x0000000000020f80                watchdog_periodic
                0x0000000000020fab                watchdog_stop
                0x0000000000020fbb                watchdog_reboot
 .text          0x0000000000020fcb       0x75 build/cooja/mtype884.a(int-master.o)
                0x0000000000020fcb                int_master_enable
                0x0000000000020fe5                int_master_read_and_disable
                0x000000000002100d                int_master_status_set
                0x0000000000021026                int_master_is_enabled
 .text          0x0000000000021040      0x11d build/cooja/mtype884.a(stimer.o)
                0x0000000000021040                stimer_set
                0x000000000002106f                stimer_reset
                0x00000000000210a6                stimer_restart
                0x00000000000210cc                stimer_expired
                0x0000000000021108                stimer_remaining
                0x0000000000021134                stimer_elapsed
 .text          0x000000000002115d      0x188 build/cooja/mtype884.a(ringbuf.o)
                0x000000000002115d                ringbuf_init
                0x0000000000021199                ringbuf_put
                0x0000000000021221                ringbuf_get
                0x0000000000021298                ringbuf_size
                0x00000000000212b4                ringbuf_elements
 .text          0x00000000000212e5      0x1ec build/cooja/mtype884.a(memb.o)
                0x00000000000212e5                memb_init
                0x0000000000021349                memb_alloc
                0x00000000000213b6                memb_free
                0x0000000000021437                memb_inmemb
                0x0000000000021480                memb_numfree
 .text          0x00000000000214d1       0x31 build/cooja/mtype884.a(assert.o)
                0x00000000000214d1                _xassert
 .text          0x0000000000021502      0xb68 build/cooja/mtype884.a(nbr-table.o)
                0x00000000000218a4                nbr_table_count_entries
                0x0000000000021951                nbr_table_gc_get_worst
                0x0000000000021991                nbr_table_can_accept_new
                0x0000000000021b1a                nbr_table_entry_is_allowed
                0x0000000000021bba                nbr_table_register
                0x0000000000021c38                nbr_table_is_registered
                0x0000000000021c7d                nbr_table_head
                0x0000000000021cea                nbr_table_next
                0x0000000000021d5c                nbr_table_add_lladdr
                0x0000000000021eab                nbr_table_get_from_lladdr
                0x0000000000021f08                nbr_table_remove
                0x0000000000021f53                nbr_table_lock
                0x0000000000021f79                nbr_table_unlock
                0x0000000000021f9f                nbr_table_get_lladdr
                0x0000000000021fd5                nbr_table_clear
                0x000000000002201a                nbr_table_key_head
                0x0000000000022044                nbr_table_key_next
 .text          0x000000000002206a      0x450 build/cooja/mtype884.a(link-stats.o)
                0x000000000002206a                link_stats_from_lladdr
                0x0000000000022097                link_stats_get_lladdr
                0x00000000000220c4                link_stats_is_fresh
                0x0000000000022111                guess_etx_from_rssi
                0x0000000000022197                link_stats_packet_sent
                0x00000000000222db                link_stats_input_callback
                0x000000000002240f                link_stats_reset
                0x0000000000022471                link_stats_init
 .text          0x00000000000224ba      0x1a8 build/cooja/mtype884.a(mac-sequence.o)
                0x00000000000224ba                mac_sequence_is_duplicate
                0x000000000002257a                mac_sequence_register_seqno
 .text          0x0000000000022662       0x2d build/cooja/mtype884.a(mac.o)
                0x0000000000022662                mac_call_sent_callback
 .text          0x000000000002268f      0x477 build/cooja/mtype884.a(framer-802154.o)
                0x0000000000022832                framer_802154_setup_params
 .text          0x0000000000022b06      0xc1a build/cooja/mtype884.a(frame802154.o)
                0x0000000000022b41                frame802154_get_pan_id
                0x0000000000022b57                frame802154_set_pan_id
                0x0000000000022b7c                frame802154_has_panid
                0x0000000000022d35                frame802154_check_dest_panid
                0x0000000000022dc7                frame802154_is_broadcast_addr
                0x0000000000022e1e                frame802154_extract_linkaddr
                0x00000000000230a7                frame802154_hdrlen
                0x0000000000023124                frame802154_create_fcf
                0x00000000000231e6                frame802154_create
                0x0000000000023371                frame802154_parse_fcf
                0x000000000002345d                frame802154_parse
 .text          0x0000000000023720       0x4e build/cooja/mtype884.a(csma-security.o)
                0x0000000000023720                csma_security_create_frame
                0x0000000000023751                csma_security_parse_frame
 .text          0x000000000002376e      0x5d3 build/cooja/mtype884.a(uipbuf.o)
                0x000000000002376e                uipbuf_clear
                0x00000000000237a5                uipbuf_add_ext_hdr
                0x0000000000023840                uipbuf_set_len
                0x000000000002387a                uipbuf_set_len_field
                0x00000000000238b0                uipbuf_get_len_field
                0x00000000000238da                uipbuf_get_next_header
                0x0000000000023a2b                uipbuf_get_last_header
                0x0000000000023aae                uipbuf_search_header
                0x0000000000023b72                uipbuf_get_attr
                0x0000000000023ba3                uipbuf_set_attr
                0x0000000000023be4                uipbuf_set_default_attr
                0x0000000000023c25                uipbuf_clear_attr
                0x0000000000023c65                uipbuf_set_attr_flag
                0x0000000000023c91                uipbuf_clr_attr_flag
                0x0000000000023cc3                uipbuf_is_attr_flag
                0x0000000000023cf1                uipbuf_init
 .text          0x0000000000023d41      0x8b7 build/cooja/mtype884.a(uip-icmp6.o)
                0x0000000000023dc6                uip_icmp6_input
                0x0000000000023e27                uip_icmp6_register_input_handler
                0x0000000000023fdb                uip_icmp6_error_output
                0x000000000002431d                uip_icmp6_send
                0x000000000002454b                uip_icmp6_echo_reply_callback_add
                0x000000000002458e                uip_icmp6_echo_reply_callback_rm
                0x00000000000245bc                uip_icmp6_init
 .text          0x00000000000245f8      0x772 build/cooja/mtype884.a(uip-sr.o)
                0x00000000000245f8                uip_sr_num_nodes
                0x00000000000246a4                uip_sr_get_node
                0x000000000002470b                uip_sr_is_addr_reachable
                0x00000000000247c8                uip_sr_expire_parent
                0x000000000002481b                uip_sr_update_node
                0x000000000002495f                uip_sr_init
                0x00000000000249a5                uip_sr_node_head
                0x00000000000249cf                uip_sr_node_next
                0x00000000000249f5                uip_sr_periodic
                0x0000000000024b11                uip_sr_free_all
                0x0000000000024b96                uip_sr_link_snprint
 .text          0x0000000000024d6a      0x1a5 build/cooja/mtype884.a(uip-packetqueue)
                0x0000000000024daa                uip_packetqueue_new
                0x0000000000024dc3                uip_packetqueue_alloc
                0x0000000000024e32                uip_packetqueue_free
                0x0000000000024e8a                uip_packetqueue_buf
                0x0000000000024eb1                uip_packetqueue_buflen
                0x0000000000024edc                uip_packetqueue_set_buflen
 .text          0x0000000000024f0f       0x8d build/cooja/mtype884.a(rpl-nbr-policy.)
                0x0000000000024f5b                rpl_nbr_gc_get_worst
 .text          0x0000000000024f9c      0xaad build/cooja/mtype884.a(rpl-neighbor.o)
                0x0000000000025038                rpl_neighbor_snprint
                0x0000000000025320                rpl_neighbor_print_list
                0x00000000000253f3                rpl_neighbor_count
                0x00000000000254d6                rpl_neighbor_get_from_lladdr
                0x0000000000025503                rpl_neighbor_is_acceptable_parent
                0x0000000000025549                rpl_neighbor_get_link_metric
                0x000000000002558f                rpl_neighbor_rank_via_nbr
                0x00000000000255d5                rpl_neighbor_get_lladdr
                0x0000000000025602                rpl_neighbor_get_ipaddr
                0x0000000000025638                rpl_neighbor_get_link_stats
                0x000000000002566e                rpl_neighbor_is_fresh
                0x00000000000256a4                rpl_neighbor_is_parent
                0x00000000000256db                rpl_neighbor_set_preferred_parent
                0x0000000000025795                rpl_neighbor_remove_all
                0x0000000000025802                rpl_neighbor_get_from_ipaddr
                0x000000000002593c                rpl_neighbor_select_best
                0x0000000000025a17                rpl_neighbor_init
 .text          0x0000000000025a49     0x11f4 build/cooja/mtype884.a(rpl-dag.o)
                0x0000000000025a49                rpl_dag_state_to_str
                0x0000000000025a97                rpl_dag_get_root_ipaddr
                0x0000000000025ae7                rpl_dag_leave
                0x0000000000025b9d                rpl_dag_poison_and_leave
                0x0000000000025bc9                rpl_dag_periodic
                0x0000000000025c8e                rpl_is_addr_in_our_dag
                0x0000000000025ced                rpl_get_default_instance
                0x0000000000025d17                rpl_get_any_dag
                0x0000000000025d8d                rpl_refresh_routes
                0x0000000000025df0                rpl_global_repair
                0x0000000000025ec1                rpl_local_repair
                0x0000000000025f26                rpl_dag_ready_to_advertise
                0x0000000000025f7f                rpl_dag_update_state
                0x00000000000267fb                rpl_process_dio
                0x0000000000026896                rpl_process_dis
                0x00000000000268ec                rpl_process_dao
                0x000000000002698d                rpl_process_dao_ack
                0x0000000000026a49                rpl_process_hbh
                0x0000000000026aa9                rpl_dag_init_root
                0x0000000000026c0b                rpl_dag_init
 .text          0x0000000000026c3d      0xd8d build/cooja/mtype884.a(rpl-timers.o)
                0x0000000000026c3d                rpl_timers_schedule_periodic_dis
                0x0000000000026de7                rpl_timers_dio_reset
                0x0000000000026f5f                rpl_timers_schedule_unicast_dio
                0x0000000000027132                rpl_timers_schedule_dao
                0x0000000000027238                rpl_timers_schedule_dao_ack
                0x0000000000027307                rpl_timers_notify_dao_ack
                0x000000000002738d                get_probing_delay
                0x00000000000273d2                get_probing_target
                0x0000000000027607                rpl_schedule_probing
                0x0000000000027653                rpl_schedule_probing_now
                0x00000000000276ed                rpl_timers_unschedule_leaving
                0x0000000000027747                rpl_timers_schedule_leaving
                0x00000000000277ac                rpl_timers_init
                0x000000000002786e                rpl_timers_stop_dag_timers
                0x000000000002792b                rpl_timers_unschedule_state_update
                0x0000000000027967                rpl_timers_schedule_state_update
 .text          0x00000000000279ca      0xd42 build/cooja/mtype884.a(rpl-ext-header.)
                0x00000000000279ca                rpl_ext_header_srh_get_next_hop
                0x0000000000027ad5                rpl_ext_header_srh_update
                0x0000000000028107                rpl_ext_header_hbh_update
                0x0000000000028486                rpl_ext_header_update
                0x0000000000028535                rpl_ext_header_remove
 .text          0x000000000002870c      0x39b build/cooja/mtype884.a(rpl-mrhof.o)
 *fill*         0x0000000000028aa7        0x9 
 .text          0x0000000000028ab0       0x14 /usr/lib/i386-linux-gnu/libc_nonshared.a(stack_chk_fail_local.oS)
                0x0000000000028ab0                __stack_chk_fail_local
 .text          0x0000000000028ac4        0x0 /usr/lib/gcc/i686-linux-gnu/7/crtendS.o
 .text          0x0000000000028ac4        0x0 /usr/lib/gcc/i686-linux-gnu/7/../../../i386-linux-gnu/crtn.o
 *(.gnu.warning)

.fini           0x0000000000028ac4       0x14
 *(SORT_NONE(.fini))
 .fini          0x0000000000028ac4        0xf /usr/lib/gcc/i686-linux-gnu/7/../../../i386-linux-gnu/crti.o
                0x0000000000028ac4                _fini
 .fini          0x0000000000028ad3        0x5 /usr/lib/gcc/i686-linux-gnu/7/../../../i386-linux-gnu/crtn.o
                [!provide]                        PROVIDE (__etext = .)
                [!provide]                        PROVIDE (_etext = .)
                [!provide]                        PROVIDE (etext = .)

.rodata         0x0000000000028ad8      0x9cf
 *(.rodata .rodata.* .gnu.linkonce.r.*)
 .rodata        0x0000000000028ad8      0x40f temperature-sensor.o
 *fill*         0x0000000000028ee7        0x1 
 .rodata        0x0000000000028ee8        0x6 build/cooja/mtype884.a(leds-arch.o)
                0x0000000000028ee8                leds_arch_leds
 .rodata        0x0000000000028eee        0x4 build/cooja/mtype884.a(pir-sensor.o)
 .rodata        0x0000000000028ef2        0x6 build/cooja/mtype884.a(rs232.o)
 .rodata        0x0000000000028ef8        0xa build/cooja/mtype884.a(vib-sensor.o)
 *fill*         0x0000000000028f02        0x2 
 .rodata        0x0000000000028f04       0x27 build/cooja/mtype884.a(cfs-cooja.o)
 *fill*         0x0000000000028f2b        0x1 
 .rodata        0x0000000000028f2c       0x68 build/cooja/mtype884.a(cooja-radio.o)
 .rodata        0x0000000000028f94        0x8 build/cooja/mtype884.a(sensors.o)
 .rodata        0x0000000000028f9c       0x14 build/cooja/mtype884.a(buttons.o)
                0x0000000000028fa8                button_hal_button_count
 .rodata        0x0000000000028fb0       0x14 build/cooja/mtype884.a(mqtt.o)
 .rodata        0x0000000000028fc4       0xf4 build/cooja/mtype884.a(contiki-main.o)
 .rodata        0x00000000000290b8        0xf build/cooja/mtype884.a(ctimer.o)
 *fill*         0x00000000000290c7        0x1 
 .rodata        0x00000000000290c8       0xc4 build/cooja/mtype884.a(log.o)
 .rodata        0x000000000002918c        0xc build/cooja/mtype884.a(etimer.o)
 .rodata        0x0000000000029198       0x13 build/cooja/mtype884.a(button-hal.o)
 .rodata        0x00000000000291ab        0xe build/cooja/mtype884.a(serial-line.o)
 *fill*         0x00000000000291b9        0x3 
 .rodata        0x00000000000291bc        0x8 build/cooja/mtype884.a(linkaddr.o)
                0x00000000000291bc                linkaddr_null
 .rodata        0x00000000000291c4        0x5 build/cooja/mtype884.a(csma.o)
 *fill*         0x00000000000291c9        0x3 
 .rodata        0x00000000000291cc       0x24 build/cooja/mtype884.a(csma-output.o)
 .rodata        0x00000000000291f0       0x13 build/cooja/mtype884.a(tcp-socket.o)
 *fill*         0x0000000000029203        0x1 
 .rodata        0x0000000000029204       0x4d build/cooja/mtype884.a(uip-ds6-route.o)
 .rodata        0x0000000000029251        0xd build/cooja/mtype884.a(tcpip.o)
 *fill*         0x000000000002925e        0x2 
 .rodata        0x0000000000029260       0x48 build/cooja/mtype884.a(uip6.o)
 .rodata        0x00000000000292a8       0x1f build/cooja/mtype884.a(sicslowpan.o)
                0x00000000000292a8                unc_llconf
                0x00000000000292ac                unc_ctxconf
                0x00000000000292b0                unc_mxconf
                0x00000000000292b4                llprefix
 .rodata        0x00000000000292c7       0x2d build/cooja/mtype884.a(uiplib.o)
 .rodata        0x00000000000292f4        0x9 build/cooja/mtype884.a(rpl.o)
 *fill*         0x00000000000292fd        0x3 
 .rodata        0x0000000000029300       0x25 build/cooja/mtype884.a(assert.o)
 .rodata        0x0000000000029325       0x44 build/cooja/mtype884.a(uip-sr.o)
 *fill*         0x0000000000029369        0x3 
 .rodata        0x000000000002936c       0x58 build/cooja/mtype884.a(rpl-neighbor.o)
 .rodata        0x00000000000293c4       0xd7 build/cooja/mtype884.a(rpl-dag.o)
 .rodata        0x000000000002949b        0xc build/cooja/mtype884.a(rpl-timers.o)

.rodata1
 *(.rodata1)

.eh_frame_hdr   0x00000000000294a8     0x187c
 *(.eh_frame_hdr)
 .eh_frame_hdr  0x00000000000294a8     0x187c temperature-sensor.o
                0x00000000000294a8                __GNU_EH_FRAME_HDR
 *(.eh_frame_entry .eh_frame_entry.*)

.eh_frame       0x000000000002ad24     0x69d0
 *(.eh_frame)
 .eh_frame      0x000000000002ad24       0x3c /usr/lib/gcc/i686-linux-gnu/7/../../../i386-linux-gnu/crti.o
                                         0x40 (size before relaxing)
 .eh_frame      0x000000000002ad60       0x14 /usr/lib/gcc/i686-linux-gnu/7/../../../i386-linux-gnu/crti.o
                                         0x2c (size before relaxing)
 .eh_frame      0x000000000002ad74       0xc0 temperature-sensor.o
                                         0xec (size before relaxing)
 .eh_frame      0x000000000002ae34      0x1ac build/cooja/mtype884.o
                                        0x1ec (size before relaxing)
 .eh_frame      0x000000000002afe0       0x48 build/cooja/mtype884.a(simEnvChange.o)
                                         0x74 (size before relaxing)
 .eh_frame      0x000000000002b028       0x6c build/cooja/mtype884.a(cooja_mt.o)
                                         0x98 (size before relaxing)
 .eh_frame      0x000000000002b094       0x88 build/cooja/mtype884.a(cooja_mtarch.o)
                                         0xc8 (size before relaxing)
 .eh_frame      0x000000000002b11c       0xe4 build/cooja/mtype884.a(rtimer-arch.o)
                                        0x110 (size before relaxing)
 .eh_frame      0x000000000002b200      0x160 build/cooja/mtype884.a(beep.o)
                                        0x18c (size before relaxing)
 .eh_frame      0x000000000002b360       0x88 build/cooja/mtype884.a(leds-arch.o)
                                         0xc8 (size before relaxing)
 .eh_frame      0x000000000002b3e8       0x44 build/cooja/mtype884.a(moteid.o)
                                         0x70 (size before relaxing)
 .eh_frame      0x000000000002b42c       0xa4 build/cooja/mtype884.a(pir-sensor.o)
                                         0xe4 (size before relaxing)
 .eh_frame      0x000000000002b4d0      0x110 build/cooja/mtype884.a(rs232.o)
                                        0x150 (size before relaxing)
 .eh_frame      0x000000000002b5e0       0xa4 build/cooja/mtype884.a(vib-sensor.o)
                                         0xe4 (size before relaxing)
 .eh_frame      0x000000000002b684       0xc0 build/cooja/mtype884.a(clock.o)
                                         0xec (size before relaxing)
 .eh_frame      0x000000000002b744      0x130 build/cooja/mtype884.a(cooja-log.o)
                                        0x170 (size before relaxing)
 .eh_frame      0x000000000002b874      0x16c build/cooja/mtype884.a(cfs-cooja.o)
                                        0x1ac (size before relaxing)
 .eh_frame      0x000000000002b9e0      0x374 build/cooja/mtype884.a(cooja-radio.o)
                                        0x3b4 (size before relaxing)
 .eh_frame      0x000000000002bd54       0xa8 build/cooja/mtype884.a(eeprom.o)
                                         0xe8 (size before relaxing)
 .eh_frame      0x000000000002bdfc       0x48 build/cooja/mtype884.a(random.o)
                                         0x74 (size before relaxing)
 .eh_frame      0x000000000002be44       0xd0 build/cooja/mtype884.a(sensors.o)
                                        0x110 (size before relaxing)
 .eh_frame      0x000000000002bf14      0x140 build/cooja/mtype884.a(leds.o)
                                        0x180 (size before relaxing)
 .eh_frame      0x000000000002c054      0x228 build/cooja/mtype884.a(gpio-hal-arch.o)
                                        0x27c (size before relaxing)
 .eh_frame      0x000000000002c27c       0xa4 build/cooja/mtype884.a(buttons.o)
                                         0xe4 (size before relaxing)
 .eh_frame      0x000000000002c320      0x560 build/cooja/mtype884.a(mqtt.o)
                                        0x5b4 (size before relaxing)
 .eh_frame      0x000000000002c880       0x38 build/cooja/mtype884.a(contiki-main.o)
                                         0x64 (size before relaxing)
 .eh_frame      0x000000000002c8b8       0x48 build/cooja/mtype884.a(autostart.o)
                                         0x74 (size before relaxing)
 .eh_frame      0x000000000002c900      0x11c build/cooja/mtype884.a(ctimer.o)
                                        0x15c (size before relaxing)
 .eh_frame      0x000000000002ca1c      0x144 build/cooja/mtype884.a(log.o)
                                        0x184 (size before relaxing)
 .eh_frame      0x000000000002cb60       0x60 build/cooja/mtype884.a(energest.o)
                                         0x8c (size before relaxing)
 .eh_frame      0x000000000002cbc0      0x204 build/cooja/mtype884.a(etimer.o)
                                        0x244 (size before relaxing)
 .eh_frame      0x000000000002cdc4       0x20 build/cooja/mtype884.a(node-id.o)
                                         0x4c (size before relaxing)
 .eh_frame      0x000000000002cde4       0x6c build/cooja/mtype884.a(rtimer.o)
                                         0xc0 (size before relaxing)
 .eh_frame      0x000000000002ce50      0x1ec build/cooja/mtype884.a(process.o)
                                        0x22c (size before relaxing)
 .eh_frame      0x000000000002d03c       0xb4 build/cooja/mtype884.a(timer.o)
                                         0xe0 (size before relaxing)
 .eh_frame      0x000000000002d0f0      0x1a0 build/cooja/mtype884.a(list.o)
                                        0x1cc (size before relaxing)
 .eh_frame      0x000000000002d290      0x188 build/cooja/mtype884.a(button-hal.o)
                                        0x1c8 (size before relaxing)
 .eh_frame      0x000000000002d418       0x6c build/cooja/mtype884.a(serial-line.o)
                                         0x98 (size before relaxing)
 .eh_frame      0x000000000002d484       0xfc build/cooja/mtype884.a(gpio-hal.o)
                                        0x13c (size before relaxing)
 .eh_frame      0x000000000002d580      0x1c0 build/cooja/mtype884.a(queuebuf.o)
                                        0x200 (size before relaxing)
 .eh_frame      0x000000000002d740      0x2b0 build/cooja/mtype884.a(packetbuf.o)
                                        0x2f0 (size before relaxing)
 .eh_frame      0x000000000002d9f0       0x90 build/cooja/mtype884.a(netstack.o)
                                         0xd0 (size before relaxing)
 .eh_frame      0x000000000002da80       0x64 build/cooja/mtype884.a(linkaddr.o)
                                         0x90 (size before relaxing)
 .eh_frame      0x000000000002dae4       0xf0 build/cooja/mtype884.a(csma.o)
                                        0x130 (size before relaxing)
 .eh_frame      0x000000000002dbd4      0x1f8 build/cooja/mtype884.a(csma-output.o)
                                        0x238 (size before relaxing)
 .eh_frame      0x000000000002ddcc      0x364 build/cooja/mtype884.a(uip-ds6.o)
                                        0x3a4 (size before relaxing)
 .eh_frame      0x000000000002e130      0x280 build/cooja/mtype884.a(tcp-socket.o)
                                        0x2c0 (size before relaxing)
 .eh_frame      0x000000000002e3b0      0x260 build/cooja/mtype884.a(uip-ds6-route.o)
                                        0x2a0 (size before relaxing)
 .eh_frame      0x000000000002e610      0x34c build/cooja/mtype884.a(tcpip.o)
                                        0x38c (size before relaxing)
 .eh_frame      0x000000000002e95c      0x2e8 build/cooja/mtype884.a(uip6.o)
                                        0x33c (size before relaxing)
 .eh_frame      0x000000000002ec44      0x1e8 build/cooja/mtype884.a(uip-ds6-nbr.o)
                                        0x228 (size before relaxing)
 .eh_frame      0x000000000002ee2c       0x8c build/cooja/mtype884.a(uip-nd6.o)
                                         0xe0 (size before relaxing)
 .eh_frame      0x000000000002eeb8      0x354 build/cooja/mtype884.a(sicslowpan.o)
                                        0x3a8 (size before relaxing)
 .eh_frame      0x000000000002f20c       0x9c build/cooja/mtype884.a(uiplib.o)
                                         0xdc (size before relaxing)
 .eh_frame      0x000000000002f2a8      0x1fc build/cooja/mtype884.a(rpl.o)
                                        0x23c (size before relaxing)
 .eh_frame      0x000000000002f4a4      0x1f0 build/cooja/mtype884.a(rpl-icmp6.o)
                                        0x230 (size before relaxing)
 .eh_frame      0x000000000002f694       0xb0 build/cooja/mtype884.a(rpl-dag-root.o)
                                         0xf0 (size before relaxing)
 .eh_frame      0x000000000002f744       0xa4 build/cooja/mtype884.a(watchdog.o)
                                         0xd0 (size before relaxing)
 .eh_frame      0x000000000002f7e8       0x80 build/cooja/mtype884.a(int-master.o)
                                         0xac (size before relaxing)
 .eh_frame      0x000000000002f868       0xd8 build/cooja/mtype884.a(stimer.o)
                                        0x104 (size before relaxing)
 .eh_frame      0x000000000002f940       0xa0 build/cooja/mtype884.a(ringbuf.o)
                                         0xcc (size before relaxing)
 .eh_frame      0x000000000002f9e0       0xa4 build/cooja/mtype884.a(memb.o)
                                         0xe4 (size before relaxing)
 .eh_frame      0x000000000002fa84       0x24 build/cooja/mtype884.a(assert.o)
                                         0x50 (size before relaxing)
 .eh_frame      0x000000000002faa8      0x428 build/cooja/mtype884.a(nbr-table.o)
                                        0x468 (size before relaxing)
 .eh_frame      0x000000000002fed0      0x140 build/cooja/mtype884.a(link-stats.o)
                                        0x180 (size before relaxing)
 .eh_frame      0x0000000000030010       0x50 build/cooja/mtype884.a(mac-sequence.o)
                                         0x7c (size before relaxing)
 .eh_frame      0x0000000000030060       0x20 build/cooja/mtype884.a(mac.o)
                                         0x4c (size before relaxing)
 .eh_frame      0x0000000000030080       0xb4 build/cooja/mtype884.a(framer-802154.o)
                                         0xf4 (size before relaxing)
 .eh_frame      0x0000000000030134      0x1b0 build/cooja/mtype884.a(frame802154.o)
                                        0x1f0 (size before relaxing)
 .eh_frame      0x00000000000302e4       0x44 build/cooja/mtype884.a(csma-security.o)
                                         0x84 (size before relaxing)
 .eh_frame      0x0000000000030328      0x204 build/cooja/mtype884.a(uipbuf.o)
                                        0x230 (size before relaxing)
 .eh_frame      0x000000000003052c      0x170 build/cooja/mtype884.a(uip-icmp6.o)
                                        0x1b0 (size before relaxing)
 .eh_frame      0x000000000003069c      0x1ac build/cooja/mtype884.a(uip-sr.o)
                                        0x1ec (size before relaxing)
 .eh_frame      0x0000000000030848       0xec build/cooja/mtype884.a(uip-packetqueue)
                                        0x12c (size before relaxing)
 .eh_frame      0x0000000000030934       0x48 build/cooja/mtype884.a(rpl-nbr-policy.)
                                         0x88 (size before relaxing)
 .eh_frame      0x000000000003097c      0x2ec build/cooja/mtype884.a(rpl-neighbor.o)
                                        0x340 (size before relaxing)
 .eh_frame      0x0000000000030c68      0x3c0 build/cooja/mtype884.a(rpl-dag.o)
                                        0x414 (size before relaxing)
 .eh_frame      0x0000000000031028      0x418 build/cooja/mtype884.a(rpl-timers.o)
                                        0x458 (size before relaxing)
 .eh_frame      0x0000000000031440      0x144 build/cooja/mtype884.a(rpl-ext-header.)
                                        0x184 (size before relaxing)
 .eh_frame      0x0000000000031584      0x150 build/cooja/mtype884.a(rpl-mrhof.o)
                                        0x190 (size before relaxing)
 .eh_frame      0x00000000000316d4       0x1c /usr/lib/i386-linux-gnu/libc_nonshared.a(stack_chk_fail_local.oS)
                                         0x48 (size before relaxing)
 .eh_frame      0x00000000000316f0        0x4 /usr/lib/gcc/i686-linux-gnu/7/crtendS.o
 *(.eh_frame.*)

.gcc_except_table
 *(.gcc_except_table .gcc_except_table.*)

.gnu_extab
 *(.gnu_extab*)

.exception_ranges
 *(.exception_ranges .exception_ranges*)
                0x0000000000032c18                . = DATA_SEGMENT_ALIGN (CONSTANT (MAXPAGESIZE), CONSTANT (COMMONPAGESIZE))

.eh_frame
 *(.eh_frame)
 *(.eh_frame.*)

.gnu_extab
 *(.gnu_extab)

.gcc_except_table
 *(.gcc_except_table .gcc_except_table.*)

.exception_ranges
 *(.exception_ranges .exception_ranges*)

.tdata
 *(.tdata .tdata.* .gnu.linkonce.td.*)

.tbss
 *(.tbss .tbss.* .gnu.linkonce.tb.*)
 *(.tcommon)

.preinit_array
 *(.preinit_array)

.init_array     0x0000000000032c18        0x4
 *(SORT_BY_INIT_PRIORITY(.init_array.*) SORT_BY_INIT_PRIORITY(.ctors.*))
 *(.init_array EXCLUDE_FILE(*crtend?.o *crtend.o *crtbegin?.o *crtbegin.o) .ctors)
 .init_array    0x0000000000032c18        0x4 /usr/lib/gcc/i686-linux-gnu/7/crtbeginS.o

.fini_array     0x0000000000032c1c        0x4
 *(SORT_BY_INIT_PRIORITY(.fini_array.*) SORT_BY_INIT_PRIORITY(.dtors.*))
 *(.fini_array EXCLUDE_FILE(*crtend?.o *crtend.o *crtbegin?.o *crtbegin.o) .dtors)
 .fini_array    0x0000000000032c1c        0x4 /usr/lib/gcc/i686-linux-gnu/7/crtbeginS.o

.ctors
 *crtbegin.o(.ctors)
 *crtbegin?.o(.ctors)
 *(EXCLUDE_FILE(*crtend?.o *crtend.o) .ctors)
 *(SORT_BY_NAME(.ctors.*))
 *(.ctors)

.dtors
 *crtbegin.o(.dtors)
 *crtbegin?.o(.dtors)
 *(EXCLUDE_FILE(*crtend?.o *crtend.o) .dtors)
 *(SORT_BY_NAME(.dtors.*))
 *(.dtors)

.jcr
 *(.jcr)

.data.rel.ro    0x0000000000032c20      0x198
 *(.data.rel.ro.local* .gnu.linkonce.d.rel.ro.local.*)
 .data.rel.ro.local
                0x0000000000032c20        0x8 temperature-sensor.o
                0x0000000000032c20                autostart_processes
 .data.rel.ro.local
                0x0000000000032c28        0x8 build/cooja/mtype884.a(beep.o)
                0x0000000000032c28                beep_interface
 .data.rel.ro.local
                0x0000000000032c30        0x8 build/cooja/mtype884.a(leds-arch.o)
                0x0000000000032c30                leds_interface
 .data.rel.ro.local
                0x0000000000032c38        0x8 build/cooja/mtype884.a(moteid.o)
                0x0000000000032c38                moteid_interface
 .data.rel.ro.local
                0x0000000000032c40       0x18 build/cooja/mtype884.a(pir-sensor.o)
                0x0000000000032c40                pir_interface
                0x0000000000032c48                pir_sensor
 .data.rel.ro.local
                0x0000000000032c58        0x8 build/cooja/mtype884.a(rs232.o)
                0x0000000000032c58                rs232_interface
 .data.rel.ro.local
                0x0000000000032c60       0x18 build/cooja/mtype884.a(vib-sensor.o)
                0x0000000000032c60                vib_interface
                0x0000000000032c68                vib_sensor
 .data.rel.ro.local
                0x0000000000032c78        0x8 build/cooja/mtype884.a(clock.o)
                0x0000000000032c78                clock_interface
 .data.rel.ro.local
                0x0000000000032c80        0x8 build/cooja/mtype884.a(cooja-log.o)
                0x0000000000032c80                simlog_interface
 .data.rel.ro.local
                0x0000000000032c88        0x8 build/cooja/mtype884.a(cfs-cooja.o)
                0x0000000000032c88                cfs_interface
 *fill*         0x0000000000032c90       0x10 
 .data.rel.ro.local
                0x0000000000032ca0       0x58 build/cooja/mtype884.a(cooja-radio.o)
                0x0000000000032ca0                radio_interface
                0x0000000000032cc0                cooja_radio_driver
 .data.rel.ro.local
                0x0000000000032cf8        0x8 build/cooja/mtype884.a(eeprom.o)
                0x0000000000032cf8                eeprom_interface
 .data.rel.ro.local
                0x0000000000032d00       0x18 build/cooja/mtype884.a(buttons.o)
                0x0000000000032d00                button_interface
                0x0000000000032d08                button_sensor
 .data.rel.ro.local
                0x0000000000032d18       0x1c build/cooja/mtype884.a(csma.o)
                0x0000000000032d18                csma_driver
 .data.rel.ro.local
                0x0000000000032d34       0x10 build/cooja/mtype884.a(sicslowpan.o)
                0x0000000000032d34                sicslowpan_driver
 .data.rel.ro.local
                0x0000000000032d44        0xc build/cooja/mtype884.a(framer-802154.o)
                0x0000000000032d44                framer_802154
 *(.data.rel.ro .data.rel.ro.* .gnu.linkonce.d.rel.ro.*)
 .data.rel.ro   0x0000000000032d50        0x0 /usr/lib/gcc/i686-linux-gnu/7/../../../i386-linux-gnu/crti.o
 *fill*         0x0000000000032d50       0x10 
 .data.rel.ro   0x0000000000032d60       0x54 build/cooja/mtype884.a(rpl.o)
                0x0000000000032d60                rpl_lite_driver
 .data.rel.ro   0x0000000000032db4        0x4 build/cooja/mtype884.a(rpl-dag.o)

.dynamic        0x0000000000032db8       0xf0
 *(.dynamic)
 .dynamic       0x0000000000032db8       0xf0 /usr/lib/gcc/i686-linux-gnu/7/../../../i386-linux-gnu/crti.o
                0x0000000000032db8                _DYNAMIC

.got            0x0000000000032ea8      0x158
 *(.got)
 .got           0x0000000000032ea8      0x158 /usr/lib/gcc/i686-linux-gnu/7/../../../i386-linux-gnu/crti.o
 *(.igot)
                0x0000000000033ff4                . = DATA_SEGMENT_RELRO_END (., (SIZEOF (.got.plt) >= 0xc)?0xc:0x0)

.got.plt        0x0000000000033000      0x4f8
 *(.got.plt)
 .got.plt       0x0000000000033000      0x4f8 /usr/lib/gcc/i686-linux-gnu/7/../../../i386-linux-gnu/crti.o
                0x0000000000033000                _GLOBAL_OFFSET_TABLE_
 *(.igot.plt)

.data           0x0000000000033500      0x3a4
 *(.data .data.* .gnu.linkonce.d.*)
 .data          0x0000000000033500        0x0 /usr/lib/gcc/i686-linux-gnu/7/../../../i386-linux-gnu/crti.o
 .data          0x0000000000033500        0x0 /usr/lib/gcc/i686-linux-gnu/7/crtbeginS.o
 .data.rel.local
                0x0000000000033500        0x4 /usr/lib/gcc/i686-linux-gnu/7/crtbeginS.o
                0x0000000000033500                __dso_handle
 .data          0x0000000000033504        0x4 temperature-sensor.o
 .data.rel.local
                0x0000000000033508       0x14 temperature-sensor.o
                0x000000000003350c                mqtt_temperature_sensor
 .data          0x000000000003351c        0x0 build/cooja/mtype884.o
 *fill*         0x000000000003351c        0x4 
 .data.rel      0x0000000000033520       0x44 build/cooja/mtype884.o
                0x0000000000033520                simInterfaces
                0x0000000000033554                sensors
 .data          0x0000000000033564        0x0 build/cooja/mtype884.a(simEnvChange.o)
 .data          0x0000000000033564        0x0 build/cooja/mtype884.a(cooja_mt.o)
 .data          0x0000000000033564        0x0 build/cooja/mtype884.a(cooja_mtarch.o)
 .data          0x0000000000033564        0x0 build/cooja/mtype884.a(rtimer-arch.o)
 .data          0x0000000000033564        0x0 build/cooja/mtype884.a(beep.o)
 .data          0x0000000000033564        0x0 build/cooja/mtype884.a(leds-arch.o)
 .data          0x0000000000033564        0x0 build/cooja/mtype884.a(moteid.o)
 .data          0x0000000000033564        0x0 build/cooja/mtype884.a(pir-sensor.o)
 .data          0x0000000000033564        0x0 build/cooja/mtype884.a(rs232.o)
 .data          0x0000000000033564        0x0 build/cooja/mtype884.a(vib-sensor.o)
 .data          0x0000000000033564        0x0 build/cooja/mtype884.a(clock.o)
 .data          0x0000000000033564        0x0 build/cooja/mtype884.a(cooja-log.o)
 .data          0x0000000000033564        0x0 build/cooja/mtype884.a(cfs-cooja.o)
 .data          0x0000000000033564       0x20 build/cooja/mtype884.a(cooja-radio.o)
                0x0000000000033564                simRadioHWOn
                0x0000000000033568                simSignalStrength
                0x000000000003356c                simLastSignalStrength
                0x0000000000033570                simPower
                0x0000000000033574                simRadioChannel
                0x0000000000033578                simLQI
                0x000000000003357c                simLastLQI
 .data.rel.local
                0x0000000000033584       0x10 build/cooja/mtype884.a(cooja-radio.o)
                0x0000000000033584                cooja_radio_process
 .data          0x0000000000033594        0x0 build/cooja/mtype884.a(eeprom.o)
 .data          0x0000000000033594        0x0 build/cooja/mtype884.a(random.o)
 .data          0x0000000000033594        0x0 build/cooja/mtype884.a(sensors.o)
 .data.rel.local
                0x0000000000033594       0x10 build/cooja/mtype884.a(sensors.o)
                0x0000000000033594                sensors_process
 .data          0x00000000000335a4        0x0 build/cooja/mtype884.a(leds.o)
 .data          0x00000000000335a4        0x0 build/cooja/mtype884.a(gpio-hal-arch.o)
 .data          0x00000000000335a4        0x1 build/cooja/mtype884.a(buttons.o)
                0x00000000000335a4                simButtonIsActive
 *fill*         0x00000000000335a5       0x1b 
 .data.rel.local
                0x00000000000335c0       0x58 build/cooja/mtype884.a(buttons.o)
                0x0000000000033610                button_hal_buttons
 .data          0x0000000000033618        0x0 build/cooja/mtype884.a(mqtt.o)
 .data.rel.local
                0x0000000000033618       0x14 build/cooja/mtype884.a(mqtt.o)
                0x000000000003361c                mqtt_process
 .data          0x000000000003362c        0x0 build/cooja/mtype884.a(contiki-main.o)
 .data          0x000000000003362c        0x0 build/cooja/mtype884.a(autostart.o)
 .data          0x000000000003362c        0x0 build/cooja/mtype884.a(ctimer.o)
 .data.rel.local
                0x000000000003362c       0x14 build/cooja/mtype884.a(ctimer.o)
                0x0000000000033630                ctimer_process
 .data          0x0000000000033640        0x4 build/cooja/mtype884.a(log.o)
                0x0000000000033640                curr_log_level_main
 *fill*         0x0000000000033644       0x1c 
 .data.rel.local
                0x0000000000033660       0x9c build/cooja/mtype884.a(log.o)
                0x0000000000033660                all_modules
 .data          0x00000000000336fc        0x0 build/cooja/mtype884.a(energest.o)
 .data          0x00000000000336fc        0x0 build/cooja/mtype884.a(etimer.o)
 .data.rel.local
                0x00000000000336fc       0x10 build/cooja/mtype884.a(etimer.o)
                0x00000000000336fc                etimer_process
 .data          0x000000000003370c        0x0 build/cooja/mtype884.a(node-id.o)
 .data          0x000000000003370c        0x0 build/cooja/mtype884.a(rtimer.o)
 .data          0x000000000003370c        0x0 build/cooja/mtype884.a(process.o)
 .data          0x000000000003370c        0x0 build/cooja/mtype884.a(timer.o)
 .data          0x000000000003370c        0x0 build/cooja/mtype884.a(list.o)
 .data          0x000000000003370c        0x0 build/cooja/mtype884.a(button-hal.o)
 .data.rel.local
                0x000000000003370c       0x10 build/cooja/mtype884.a(button-hal.o)
                0x000000000003370c                button_hal_process
 .data          0x000000000003371c        0x0 build/cooja/mtype884.a(serial-line.o)
 .data.rel.local
                0x000000000003371c       0x10 build/cooja/mtype884.a(serial-line.o)
                0x000000000003371c                serial_line_process
 .data          0x000000000003372c        0x0 build/cooja/mtype884.a(gpio-hal.o)
 .data.rel.local
                0x000000000003372c        0x4 build/cooja/mtype884.a(gpio-hal.o)
 .data          0x0000000000033730        0x0 build/cooja/mtype884.a(queuebuf.o)
 .data.rel.local
                0x0000000000033730       0x18 build/cooja/mtype884.a(queuebuf.o)
 .data          0x0000000000033748        0x0 build/cooja/mtype884.a(packetbuf.o)
 .data.rel.local
                0x0000000000033748        0x4 build/cooja/mtype884.a(packetbuf.o)
 .data          0x000000000003374c        0x0 build/cooja/mtype884.a(netstack.o)
 .data.rel.local
                0x000000000003374c        0x4 build/cooja/mtype884.a(netstack.o)
 .data          0x0000000000033750        0x0 build/cooja/mtype884.a(linkaddr.o)
 .data          0x0000000000033750        0x0 build/cooja/mtype884.a(csma.o)
 .data          0x0000000000033750        0x0 build/cooja/mtype884.a(csma-output.o)
 .data.rel.local
                0x0000000000033750       0x28 build/cooja/mtype884.a(csma-output.o)
 .data          0x0000000000033778        0x0 build/cooja/mtype884.a(uip-ds6.o)
 .data          0x0000000000033778        0x0 build/cooja/mtype884.a(tcp-socket.o)
 .data.rel.local
                0x0000000000033778       0x14 build/cooja/mtype884.a(tcp-socket.o)
                0x000000000003377c                tcp_socket_process
 .data          0x000000000003378c        0x0 build/cooja/mtype884.a(uip-ds6-route.o)
 .data.rel.local
                0x000000000003378c       0x10 build/cooja/mtype884.a(uip-ds6-route.o)
 .data          0x000000000003379c        0x0 build/cooja/mtype884.a(tcpip.o)
 .data.rel.local
                0x000000000003379c       0x10 build/cooja/mtype884.a(tcpip.o)
                0x000000000003379c                tcpip_process
 .data          0x00000000000337ac        0x0 build/cooja/mtype884.a(uip6.o)
 .data          0x00000000000337ac        0x0 build/cooja/mtype884.a(uip-ds6-nbr.o)
 .data.rel.local
                0x00000000000337ac       0x14 build/cooja/mtype884.a(uip-ds6-nbr.o)
 .data          0x00000000000337c0        0x0 build/cooja/mtype884.a(uip-nd6.o)
 .data.rel.local
                0x00000000000337c0        0xc build/cooja/mtype884.a(uip-nd6.o)
 .data          0x00000000000337cc        0x0 build/cooja/mtype884.a(sicslowpan.o)
 .data          0x00000000000337cc        0x0 build/cooja/mtype884.a(uiplib.o)
 .data          0x00000000000337cc        0x0 build/cooja/mtype884.a(rpl.o)
 .data          0x00000000000337cc        0x0 build/cooja/mtype884.a(rpl-icmp6.o)
 .data.rel.local
                0x00000000000337cc       0x30 build/cooja/mtype884.a(rpl-icmp6.o)
 .data          0x00000000000337fc        0x0 build/cooja/mtype884.a(rpl-dag-root.o)
 .data          0x00000000000337fc        0x0 build/cooja/mtype884.a(watchdog.o)
 .data          0x00000000000337fc        0x0 build/cooja/mtype884.a(int-master.o)
 .data          0x00000000000337fc        0x0 build/cooja/mtype884.a(stimer.o)
 .data          0x00000000000337fc        0x0 build/cooja/mtype884.a(ringbuf.o)
 .data          0x00000000000337fc        0x0 build/cooja/mtype884.a(memb.o)
 .data          0x00000000000337fc        0x0 build/cooja/mtype884.a(assert.o)
 .data          0x00000000000337fc        0x0 build/cooja/mtype884.a(nbr-table.o)
 .data.rel.local
                0x00000000000337fc       0x10 build/cooja/mtype884.a(nbr-table.o)
 .data          0x000000000003380c        0x0 build/cooja/mtype884.a(link-stats.o)
 .data.rel.local
                0x000000000003380c       0x14 build/cooja/mtype884.a(link-stats.o)
 .data          0x0000000000033820        0x0 build/cooja/mtype884.a(mac-sequence.o)
 .data          0x0000000000033820        0x0 build/cooja/mtype884.a(mac.o)
 .data          0x0000000000033820        0x0 build/cooja/mtype884.a(framer-802154.o)
 .data          0x0000000000033820        0x2 build/cooja/mtype884.a(frame802154.o)
 .data          0x0000000000033822        0x0 build/cooja/mtype884.a(csma-security.o)
 .data          0x0000000000033822        0x0 build/cooja/mtype884.a(uipbuf.o)
 .data          0x0000000000033822        0x0 build/cooja/mtype884.a(uip-icmp6.o)
 *fill*         0x0000000000033822        0x2 
 .data.rel.local
                0x0000000000033824       0x20 build/cooja/mtype884.a(uip-icmp6.o)
 .data          0x0000000000033844        0x0 build/cooja/mtype884.a(uip-sr.o)
 .data.rel.local
                0x0000000000033844       0x10 build/cooja/mtype884.a(uip-sr.o)
 .data          0x0000000000033854        0x0 build/cooja/mtype884.a(uip-packetqueue)
 .data.rel.local
                0x0000000000033854        0xc build/cooja/mtype884.a(uip-packetqueue)
 .data          0x0000000000033860        0x0 build/cooja/mtype884.a(rpl-nbr-policy.)
 .data          0x0000000000033860        0x0 build/cooja/mtype884.a(rpl-neighbor.o)
 .data.rel.local
                0x0000000000033860       0x14 build/cooja/mtype884.a(rpl-neighbor.o)
                0x0000000000033870                rpl_neighbors
 .data          0x0000000000033874        0x0 build/cooja/mtype884.a(rpl-dag.o)
 .data          0x0000000000033874        0x0 build/cooja/mtype884.a(rpl-timers.o)
 .data          0x0000000000033874        0x0 build/cooja/mtype884.a(rpl-ext-header.)
 .data          0x0000000000033874        0x0 build/cooja/mtype884.a(rpl-mrhof.o)
 *fill*         0x0000000000033874        0xc 
 .data.rel.local
                0x0000000000033880       0x24 build/cooja/mtype884.a(rpl-mrhof.o)
                0x0000000000033880                rpl_mrhof
 .data          0x00000000000338a4        0x0 /usr/lib/i386-linux-gnu/libc_nonshared.a(stack_chk_fail_local.oS)
 .data          0x00000000000338a4        0x0 /usr/lib/gcc/i686-linux-gnu/7/crtendS.o
 .data          0x00000000000338a4        0x0 /usr/lib/gcc/i686-linux-gnu/7/../../../i386-linux-gnu/crtn.o

.tm_clone_table
                0x00000000000338a4        0x0
 .tm_clone_table
                0x00000000000338a4        0x0 /usr/lib/gcc/i686-linux-gnu/7/crtbeginS.o
 .tm_clone_table
                0x00000000000338a4        0x0 /usr/lib/gcc/i686-linux-gnu/7/crtendS.o

.data1
 *(.data1)
                0x00000000000338a4                _edata = .
                [!provide]                        PROVIDE (edata = .)
                0x00000000000338a4                . = .
                0x00000000000338a4                __bss_start = .

.bss            0x00000000000338c0    0x14444
 *(.dynbss)
 .dynbss        0x00000000000338c0        0x0 /usr/lib/gcc/i686-linux-gnu/7/../../../i386-linux-gnu/crti.o
 *(.bss .bss.* .gnu.linkonce.b.*)
 .bss           0x00000000000338c0        0x0 /usr/lib/gcc/i686-linux-gnu/7/../../../i386-linux-gnu/crti.o
 .bss           0x00000000000338c0        0x1 /usr/lib/gcc/i686-linux-gnu/7/crtbeginS.o
 *fill*         0x00000000000338c1       0x1f 
 .bss           0x00000000000338e0      0xa01 temperature-sensor.o
 *fill*         0x00000000000342e1       0x1f 
 .bss           0x0000000000034300     0x2040 build/cooja/mtype884.o
 .bss           0x0000000000036340        0x1 build/cooja/mtype884.a(simEnvChange.o)
                0x0000000000036340                simDontFallAsleep
 *fill*         0x0000000000036341        0x3 
 .bss           0x0000000000036344        0x4 build/cooja/mtype884.a(cooja_mt.o)
 .bss           0x0000000000036348        0x4 build/cooja/mtype884.a(cooja_mtarch.o)
 .bss           0x000000000003634c        0x0 build/cooja/mtype884.a(rtimer-arch.o)
 .bss           0x000000000003634c        0x0 build/cooja/mtype884.a(beep.o)
 .bss           0x000000000003634c        0x1 build/cooja/mtype884.a(leds-arch.o)
                0x000000000003634c                simLedsValue
 .bss           0x000000000003634d        0x0 build/cooja/mtype884.a(moteid.o)
 .bss           0x000000000003634d        0x1 build/cooja/mtype884.a(pir-sensor.o)
                0x000000000003634d                simPirValue
 *fill*         0x000000000003634e        0x2 
 .bss           0x0000000000036350        0x4 build/cooja/mtype884.a(rs232.o)
 .bss           0x0000000000036354        0x1 build/cooja/mtype884.a(vib-sensor.o)
                0x0000000000036354                simVibValue
 .bss           0x0000000000036355        0x0 build/cooja/mtype884.a(clock.o)
 *fill*         0x0000000000036355        0xb 
 .bss           0x0000000000036360     0x2020 build/cooja/mtype884.a(cooja-log.o)
 .bss           0x0000000000038380      0xfc0 build/cooja/mtype884.a(cfs-cooja.o)
                0x0000000000038380                simCFSData
                0x0000000000039320                simCFSSize
                0x0000000000039324                simCFSChanged
                0x0000000000039328                simCFSRead
                0x000000000003932c                simCFSWritten
 .bss           0x0000000000039340       0x24 build/cooja/mtype884.a(cooja-radio.o)
                0x0000000000039340                simReceiving
                0x0000000000039344                simInSize
                0x0000000000039348                simLastPacketTimestamp
                0x0000000000039350                simOutSize
 .bss           0x0000000000039364        0xc build/cooja/mtype884.a(eeprom.o)
                0x0000000000039364                simEEPROMChanged
                0x0000000000039368                simEEPROMRead
                0x000000000003936c                simEEPROMWritten
 .bss           0x0000000000039370        0x0 build/cooja/mtype884.a(random.o)
 .bss           0x0000000000039370        0xc build/cooja/mtype884.a(sensors.o)
 .bss           0x000000000003937c        0x0 build/cooja/mtype884.a(leds.o)
 .bss           0x000000000003937c       0x24 build/cooja/mtype884.a(gpio-hal-arch.o)
 .bss           0x00000000000393a0        0x0 build/cooja/mtype884.a(buttons.o)
 .bss           0x00000000000393a0       0x15 build/cooja/mtype884.a(mqtt.o)
 .bss           0x00000000000393b5        0x0 build/cooja/mtype884.a(contiki-main.o)
 .bss           0x00000000000393b5        0x0 build/cooja/mtype884.a(autostart.o)
 *fill*         0x00000000000393b5        0x3 
 .bss           0x00000000000393b8        0x5 build/cooja/mtype884.a(ctimer.o)
 *fill*         0x00000000000393bd        0x3 
 .bss           0x00000000000393c0       0x2c build/cooja/mtype884.a(log.o)
                0x00000000000393c0                curr_log_level_rpl
                0x00000000000393c4                curr_log_level_tcpip
                0x00000000000393c8                curr_log_level_ipv6
                0x00000000000393cc                curr_log_level_6lowpan
                0x00000000000393d0                curr_log_level_nullnet
                0x00000000000393d4                curr_log_level_mac
                0x00000000000393d8                curr_log_level_framer
                0x00000000000393dc                curr_log_level_6top
                0x00000000000393e0                curr_log_level_coap
                0x00000000000393e4                curr_log_level_snmp
                0x00000000000393e8                curr_log_level_lwm2m
 .bss           0x00000000000393ec        0x0 build/cooja/mtype884.a(energest.o)
 .bss           0x00000000000393ec        0x8 build/cooja/mtype884.a(etimer.o)
 .bss           0x00000000000393f4        0x2 build/cooja/mtype884.a(node-id.o)
                0x00000000000393f4                node_id
 *fill*         0x00000000000393f6        0x2 
 .bss           0x00000000000393f8        0x4 build/cooja/mtype884.a(rtimer.o)
 *fill*         0x00000000000393fc        0x4 
 .bss           0x0000000000039400      0x1a1 build/cooja/mtype884.a(process.o)
                0x0000000000039400                process_list
                0x0000000000039404                process_current
 .bss           0x00000000000395a1        0x0 build/cooja/mtype884.a(timer.o)
 .bss           0x00000000000395a1        0x0 build/cooja/mtype884.a(list.o)
 *fill*         0x00000000000395a1        0x3 
 .bss           0x00000000000395a4       0x10 build/cooja/mtype884.a(button-hal.o)
 *fill*         0x00000000000395b4        0xc 
 .bss           0x00000000000395c0      0x140 build/cooja/mtype884.a(serial-line.o)
 .bss           0x0000000000039700        0x4 build/cooja/mtype884.a(gpio-hal.o)
 *fill*         0x0000000000039704       0x1c 
 .bss           0x0000000000039720     0x2c80 build/cooja/mtype884.a(queuebuf.o)
 .bss           0x000000000003c3a0       0xa0 build/cooja/mtype884.a(packetbuf.o)
 .bss           0x000000000003c440        0x4 build/cooja/mtype884.a(netstack.o)
 .bss           0x000000000003c444        0x0 build/cooja/mtype884.a(linkaddr.o)
 .bss           0x000000000003c444        0x0 build/cooja/mtype884.a(csma.o)
 *fill*         0x000000000003c444       0x1c 
 .bss           0x000000000003c460      0x726 build/cooja/mtype884.a(csma-output.o)
 *fill*         0x000000000003cb86        0x2 
 .bss           0x000000000003cb88       0x30 build/cooja/mtype884.a(uip-ds6.o)
 .bss           0x000000000003cbb8        0x5 build/cooja/mtype884.a(tcp-socket.o)
 *fill*         0x000000000003cbbd        0x3 
 .bss           0x000000000003cbc0       0x60 build/cooja/mtype884.a(uip-ds6-route.o)
 .bss           0x000000000003cc20       0xc4 build/cooja/mtype884.a(tcpip.o)
 .bss           0x000000000003cce4        0xc build/cooja/mtype884.a(uip6.o)
                0x000000000003cce4                uip_ext_bitmap
                0x000000000003cce6                uip_ext_len
                0x000000000003cce8                uip_last_proto
 *fill*         0x000000000003ccf0       0x10 
 .bss           0x000000000003cd00     0x1c20 build/cooja/mtype884.a(uip-ds6-nbr.o)
 .bss           0x000000000003e920       0x10 build/cooja/mtype884.a(uip-nd6.o)
 *fill*         0x000000000003e930       0x10 
 .bss           0x000000000003e940      0x724 build/cooja/mtype884.a(sicslowpan.o)
 .bss           0x000000000003f064        0x0 build/cooja/mtype884.a(uiplib.o)
 .bss           0x000000000003f064        0x1 build/cooja/mtype884.a(rpl.o)
 .bss           0x000000000003f065        0x0 build/cooja/mtype884.a(rpl-icmp6.o)
 *fill*         0x000000000003f065        0x3 
 .bss           0x000000000003f068       0x11 build/cooja/mtype884.a(rpl-dag-root.o)
 .bss           0x000000000003f079        0x0 build/cooja/mtype884.a(watchdog.o)
 *fill*         0x000000000003f079        0x3 
 .bss           0x000000000003f07c        0x4 build/cooja/mtype884.a(int-master.o)
 .bss           0x000000000003f080        0x0 build/cooja/mtype884.a(stimer.o)
 .bss           0x000000000003f080        0x0 build/cooja/mtype884.a(ringbuf.o)
 .bss           0x000000000003f080        0x0 build/cooja/mtype884.a(memb.o)
 .bss           0x000000000003f080        0x0 build/cooja/mtype884.a(assert.o)
 .bss           0x000000000003f080     0x1214 build/cooja/mtype884.a(nbr-table.o)
 *fill*         0x0000000000040294        0xc 
 .bss           0x00000000000402a0      0xe10 build/cooja/mtype884.a(link-stats.o)
 *fill*         0x00000000000410b0       0x10 
 .bss           0x00000000000410c0      0x100 build/cooja/mtype884.a(mac-sequence.o)
 .bss           0x00000000000411c0        0x0 build/cooja/mtype884.a(mac.o)
 .bss           0x00000000000411c0        0x2 build/cooja/mtype884.a(framer-802154.o)
 .bss           0x00000000000411c2        0x0 build/cooja/mtype884.a(frame802154.o)
 .bss           0x00000000000411c2        0x0 build/cooja/mtype884.a(csma-security.o)
 *fill*         0x00000000000411c2        0x2 
 .bss           0x00000000000411c4       0x20 build/cooja/mtype884.a(uipbuf.o)
 .bss           0x00000000000411e4       0x18 build/cooja/mtype884.a(uip-icmp6.o)
 *fill*         0x00000000000411fc        0x4 
 .bss           0x0000000000041200     0x1d80 build/cooja/mtype884.a(uip-sr.o)
 .bss           0x0000000000042f80      0xa78 build/cooja/mtype884.a(uip-packetqueue)
 .bss           0x00000000000439f8        0x0 build/cooja/mtype884.a(rpl-nbr-policy.)
 *fill*         0x00000000000439f8        0x8 
 .bss           0x0000000000043a00      0x960 build/cooja/mtype884.a(rpl-neighbor.o)
 .bss           0x0000000000044360        0x0 build/cooja/mtype884.a(rpl-dag.o)
 .bss           0x0000000000044360       0x40 build/cooja/mtype884.a(rpl-timers.o)
 .bss           0x00000000000443a0        0x0 build/cooja/mtype884.a(rpl-ext-header.)
 .bss           0x00000000000443a0        0x0 build/cooja/mtype884.a(rpl-mrhof.o)
 .bss           0x00000000000443a0        0x0 /usr/lib/i386-linux-gnu/libc_nonshared.a(stack_chk_fail_local.oS)
 .bss           0x00000000000443a0        0x0 /usr/lib/gcc/i686-linux-gnu/7/crtendS.o
 .bss           0x00000000000443a0        0x0 /usr/lib/gcc/i686-linux-gnu/7/../../../i386-linux-gnu/crtn.o
 *(COMMON)
 COMMON         0x00000000000443a0        0x8 build/cooja/mtype884.o
                0x00000000000443a0                referenceVar
                0x00000000000443a4                sensors_flags
 COMMON         0x00000000000443a8        0xc build/cooja/mtype884.a(simEnvChange.o)
                0x00000000000443a8                simEtimerPending
                0x00000000000443ac                simProcessRunValue
                0x00000000000443b0                simEtimerNextExpirationTime
 *fill*         0x00000000000443b4        0x4 
 COMMON         0x00000000000443b8       0x18 build/cooja/mtype884.a(rtimer-arch.o)
                0x00000000000443b8                simRtimerPending
                0x00000000000443c0                simRtimerCurrentTicks
                0x00000000000443c8                simRtimerNextExpirationTime
 COMMON         0x00000000000443d0        0x1 build/cooja/mtype884.a(beep.o)
                0x00000000000443d0                simBeeped
 *fill*         0x00000000000443d1        0x3 
 COMMON         0x00000000000443d4        0xc build/cooja/mtype884.a(moteid.o)
                0x00000000000443d4                simRandomSeed
                0x00000000000443d8                simMoteIDChanged
                0x00000000000443dc                simMoteID
 COMMON         0x00000000000443e0        0x2 build/cooja/mtype884.a(pir-sensor.o)
                0x00000000000443e0                simPirIsActive
                0x00000000000443e1                simPirChanged
 *fill*         0x00000000000443e2       0x1e 
 COMMON         0x0000000000044400      0x820 build/cooja/mtype884.a(rs232.o)
                0x0000000000044400                simSerialReceivingFlag
                0x0000000000044404                simSerialReceivingLength
                0x0000000000044420                simSerialReceivingData
 COMMON         0x0000000000044c20        0x2 build/cooja/mtype884.a(vib-sensor.o)
                0x0000000000044c20                simVibChanged
                0x0000000000044c21                simVibIsActive
 *fill*         0x0000000000044c22        0x2 
 COMMON         0x0000000000044c24        0x4 build/cooja/mtype884.a(clock.o)
                0x0000000000044c24                simCurrentTime
 *fill*         0x0000000000044c28       0x18 
 COMMON         0x0000000000044c40     0x2020 build/cooja/mtype884.a(cooja-log.o)
                0x0000000000044c40                simLoggedLength
                0x0000000000044c44                simLoggedFlag
                0x0000000000044c60                simLoggedData
 COMMON         0x0000000000046c60       0xfd build/cooja/mtype884.a(cooja-radio.o)
                0x0000000000046c60                simOutDataBuffer
                0x0000000000046ce0                simInDataBuffer
 *fill*         0x0000000000046d5d        0x3 
 COMMON         0x0000000000046d60      0x400 build/cooja/mtype884.a(eeprom.o)
                0x0000000000046d60                simEEPROMData
 COMMON         0x0000000000047160        0x1 build/cooja/mtype884.a(sensors.o)
                0x0000000000047160                sensors_event
 COMMON         0x0000000000047161        0x2 build/cooja/mtype884.a(buttons.o)
                0x0000000000047161                simButtonIsDown
                0x0000000000047162                simButtonChanged
 COMMON         0x0000000000047163        0x1 build/cooja/mtype884.a(mqtt.o)
                0x0000000000047163                mqtt_update_event
 COMMON         0x0000000000047164        0x3 build/cooja/mtype884.a(button-hal.o)
                0x0000000000047164                button_hal_periodic_event
                0x0000000000047165                button_hal_press_event
                0x0000000000047166                button_hal_release_event
 COMMON         0x0000000000047167        0x1 build/cooja/mtype884.a(serial-line.o)
                0x0000000000047167                serial_line_event_message
 COMMON         0x0000000000047168       0x2c build/cooja/mtype884.a(packetbuf.o)
                0x0000000000047168                packetbuf_attrs
                0x0000000000047184                packetbuf_addrs
 COMMON         0x0000000000047194        0x8 build/cooja/mtype884.a(linkaddr.o)
                0x0000000000047194                linkaddr_node_addr
 *fill*         0x000000000004719c        0x4 
 COMMON         0x00000000000471a0      0x1a5 build/cooja/mtype884.a(uip-ds6.o)
                0x00000000000471a0                uip_ds6_prefix_list
                0x0000000000047200                uip_ds6_timer_periodic
                0x0000000000047210                uip_ds6_netif_addr_list_offset
                0x0000000000047220                uip_ds6_if
                0x000000000004733c                uip_ds6_timer_ra
                0x0000000000047344                uip_ds6_addr_size
 COMMON         0x0000000000047345        0x1 build/cooja/mtype884.a(tcpip.o)
                0x0000000000047345                tcpip_event
 *fill*         0x0000000000047346       0x1a 
 COMMON         0x0000000000047360      0x808 build/cooja/mtype884.a(uip6.o)
                0x0000000000047360                uip_slen
                0x0000000000047364                uip_acc32
                0x0000000000047380                uip_conns
                0x0000000000047500                uip_lladdr
                0x0000000000047508                uip_appdata
                0x000000000004750c                uip_flags
                0x0000000000047520                uip_aligned_buf
                0x0000000000047a20                uip_listenports
                0x0000000000047a48                uip_len
                0x0000000000047a4c                uip_sappdata
                0x0000000000047a60                uip_udp_conns
                0x0000000000047b60                uip_udp_conn
                0x0000000000047b64                uip_conn
 COMMON         0x0000000000047b68       0x10 build/cooja/mtype884.a(rpl.o)
                0x0000000000047b68                rpl_multicast_addr
 *fill*         0x0000000000047b78        0x8 
 COMMON         0x0000000000047b80       0x20 build/cooja/mtype884.a(link-stats.o)
                0x0000000000047b80                periodic_timer
 COMMON         0x0000000000047ba0      0x164 build/cooja/mtype884.a(rpl-dag.o)
                0x0000000000047ba0                curr_instance
                0x0000000000047d04                . = ALIGN ((. != 0x0)?0x4:0x1)
                0x0000000000047d04                . = ALIGN (0x4)
                0x0000000000047d04                . = SEGMENT_START ("ldata-segment", .)
                0x0000000000047d04                . = ALIGN (0x4)
                0x0000000000047d04                _end = .
                [!provide]                        PROVIDE (end = .)
                0x0000000000047d04                . = DATA_SEGMENT_END (.)

.stab
 *(.stab)

.stabstr
 *(.stabstr)

.stab.excl
 *(.stab.excl)

.stab.exclstr
 *(.stab.exclstr)

.stab.index
 *(.stab.index)

.stab.indexstr
 *(.stab.indexstr)

.comment        0x0000000000000000       0x29
 *(.comment)
 .comment       0x0000000000000000       0x29 /usr/lib/gcc/i686-linux-gnu/7/crtbeginS.o
                                         0x2a (size before relaxing)
 .comment       0x0000000000000029       0x2a temperature-sensor.o
 .comment       0x0000000000000029       0x2a build/cooja/mtype884.o
 .comment       0x0000000000000029       0x2a build/cooja/mtype884.a(simEnvChange.o)
 .comment       0x0000000000000029       0x2a build/cooja/mtype884.a(cooja_mt.o)
 .comment       0x0000000000000029       0x2a build/cooja/mtype884.a(cooja_mtarch.o)
 .comment       0x0000000000000029       0x2a build/cooja/mtype884.a(rtimer-arch.o)
 .comment       0x0000000000000029       0x2a build/cooja/mtype884.a(beep.o)
 .comment       0x0000000000000029       0x2a build/cooja/mtype884.a(leds-arch.o)
 .comment       0x0000000000000029       0x2a build/cooja/mtype884.a(moteid.o)
 .comment       0x0000000000000029       0x2a build/cooja/mtype884.a(pir-sensor.o)
 .comment       0x0000000000000029       0x2a build/cooja/mtype884.a(rs232.o)
 .comment       0x0000000000000029       0x2a build/cooja/mtype884.a(vib-sensor.o)
 .comment       0x0000000000000029       0x2a build/cooja/mtype884.a(clock.o)
 .comment       0x0000000000000029       0x2a build/cooja/mtype884.a(cooja-log.o)
 .comment       0x0000000000000029       0x2a build/cooja/mtype884.a(cfs-cooja.o)
 .comment       0x0000000000000029       0x2a build/cooja/mtype884.a(cooja-radio.o)
 .comment       0x0000000000000029       0x2a build/cooja/mtype884.a(eeprom.o)
 .comment       0x0000000000000029       0x2a build/cooja/mtype884.a(random.o)
 .comment       0x0000000000000029       0x2a build/cooja/mtype884.a(sensors.o)
 .comment       0x0000000000000029       0x2a build/cooja/mtype884.a(leds.o)
 .comment       0x0000000000000029       0x2a build/cooja/mtype884.a(gpio-hal-arch.o)
 .comment       0x0000000000000029       0x2a build/cooja/mtype884.a(buttons.o)
 .comment       0x0000000000000029       0x2a build/cooja/mtype884.a(mqtt.o)
 .comment       0x0000000000000029       0x2a build/cooja/mtype884.a(contiki-main.o)
 .comment       0x0000000000000029       0x2a build/cooja/mtype884.a(autostart.o)
 .comment       0x0000000000000029       0x2a build/cooja/mtype884.a(ctimer.o)
 .comment       0x0000000000000029       0x2a build/cooja/mtype884.a(log.o)
 .comment       0x0000000000000029       0x2a build/cooja/mtype884.a(energest.o)
 .comment       0x0000000000000029       0x2a build/cooja/mtype884.a(etimer.o)
 .comment       0x0000000000000029       0x2a build/cooja/mtype884.a(node-id.o)
 .comment       0x0000000000000029       0x2a build/cooja/mtype884.a(rtimer.o)
 .comment       0x0000000000000029       0x2a build/cooja/mtype884.a(process.o)
 .comment       0x0000000000000029       0x2a build/cooja/mtype884.a(timer.o)
 .comment       0x0000000000000029       0x2a build/cooja/mtype884.a(list.o)
 .comment       0x0000000000000029       0x2a build/cooja/mtype884.a(button-hal.o)
 .comment       0x0000000000000029       0x2a build/cooja/mtype884.a(serial-line.o)
 .comment       0x0000000000000029       0x2a build/cooja/mtype884.a(gpio-hal.o)
 .comment       0x0000000000000029       0x2a build/cooja/mtype884.a(queuebuf.o)
 .comment       0x0000000000000029       0x2a build/cooja/mtype884.a(packetbuf.o)
 .comment       0x0000000000000029       0x2a build/cooja/mtype884.a(netstack.o)
 .comment       0x0000000000000029       0x2a build/cooja/mtype884.a(linkaddr.o)
 .comment       0x0000000000000029       0x2a build/cooja/mtype884.a(csma.o)
 .comment       0x0000000000000029       0x2a build/cooja/mtype884.a(csma-output.o)
 .comment       0x0000000000000029       0x2a build/cooja/mtype884.a(uip-ds6.o)
 .comment       0x0000000000000029       0x2a build/cooja/mtype884.a(tcp-socket.o)
 .comment       0x0000000000000029       0x2a build/cooja/mtype884.a(uip-ds6-route.o)
 .comment       0x0000000000000029       0x2a build/cooja/mtype884.a(tcpip.o)
 .comment       0x0000000000000029       0x2a build/cooja/mtype884.a(uip6.o)
 .comment       0x0000000000000029       0x2a build/cooja/mtype884.a(uip-ds6-nbr.o)
 .comment       0x0000000000000029       0x2a build/cooja/mtype884.a(uip-nd6.o)
 .comment       0x0000000000000029       0x2a build/cooja/mtype884.a(sicslowpan.o)
 .comment       0x0000000000000029       0x2a build/cooja/mtype884.a(uiplib.o)
 .comment       0x0000000000000029       0x2a build/cooja/mtype884.a(rpl.o)
 .comment       0x0000000000000029       0x2a build/cooja/mtype884.a(rpl-icmp6.o)
 .comment       0x0000000000000029       0x2a build/cooja/mtype884.a(rpl-dag-root.o)
 .comment       0x0000000000000029       0x2a build/cooja/mtype884.a(watchdog.o)
 .comment       0x0000000000000029       0x2a build/cooja/mtype884.a(int-master.o)
 .comment       0x0000000000000029       0x2a build/cooja/mtype884.a(stimer.o)
 .comment       0x0000000000000029       0x2a build/cooja/mtype884.a(ringbuf.o)
 .comment       0x0000000000000029       0x2a build/cooja/mtype884.a(memb.o)
 .comment       0x0000000000000029       0x2a build/cooja/mtype884.a(assert.o)
 .comment       0x0000000000000029       0x2a build/cooja/mtype884.a(nbr-table.o)
 .comment       0x0000000000000029       0x2a build/cooja/mtype884.a(link-stats.o)
 .comment       0x0000000000000029       0x2a build/cooja/mtype884.a(mac-sequence.o)
 .comment       0x0000000000000029       0x2a build/cooja/mtype884.a(mac.o)
 .comment       0x0000000000000029       0x2a build/cooja/mtype884.a(framer-802154.o)
 .comment       0x0000000000000029       0x2a build/cooja/mtype884.a(frame802154.o)
 .comment       0x0000000000000029       0x2a build/cooja/mtype884.a(csma-security.o)
 .comment       0x0000000000000029       0x2a build/cooja/mtype884.a(uipbuf.o)
 .comment       0x0000000000000029       0x2a build/cooja/mtype884.a(uip-icmp6.o)
 .comment       0x0000000000000029       0x2a build/cooja/mtype884.a(uip-sr.o)
 .comment       0x0000000000000029       0x2a build/cooja/mtype884.a(uip-packetqueue)
 .comment       0x0000000000000029       0x2a build/cooja/mtype884.a(rpl-nbr-policy.)
 .comment       0x0000000000000029       0x2a build/cooja/mtype884.a(rpl-neighbor.o)
 .comment       0x0000000000000029       0x2a build/cooja/mtype884.a(rpl-dag.o)
 .comment       0x0000000000000029       0x2a build/cooja/mtype884.a(rpl-timers.o)
 .comment       0x0000000000000029       0x2a build/cooja/mtype884.a(rpl-ext-header.)
 .comment       0x0000000000000029       0x2a build/cooja/mtype884.a(rpl-mrhof.o)
 .comment       0x0000000000000029       0x2a /usr/lib/gcc/i686-linux-gnu/7/crtendS.o

.debug
 *(.debug)

.line
 *(.line)

.debug_srcinfo
 *(.debug_srcinfo)

.debug_sfnames
 *(.debug_sfnames)

.debug_aranges  0x0000000000000000      0x9c0
 *(.debug_aranges)
 .debug_aranges
                0x0000000000000000       0x20 temperature-sensor.o
 .debug_aranges
                0x0000000000000020       0x20 build/cooja/mtype884.o
 .debug_aranges
                0x0000000000000040       0x20 build/cooja/mtype884.a(simEnvChange.o)
 .debug_aranges
                0x0000000000000060       0x20 build/cooja/mtype884.a(cooja_mt.o)
 .debug_aranges
                0x0000000000000080       0x20 build/cooja/mtype884.a(cooja_mtarch.o)
 .debug_aranges
                0x00000000000000a0       0x20 build/cooja/mtype884.a(rtimer-arch.o)
 .debug_aranges
                0x00000000000000c0       0x20 build/cooja/mtype884.a(beep.o)
 .debug_aranges
                0x00000000000000e0       0x20 build/cooja/mtype884.a(leds-arch.o)
 .debug_aranges
                0x0000000000000100       0x20 build/cooja/mtype884.a(moteid.o)
 .debug_aranges
                0x0000000000000120       0x20 build/cooja/mtype884.a(pir-sensor.o)
 .debug_aranges
                0x0000000000000140       0x20 build/cooja/mtype884.a(rs232.o)
 .debug_aranges
                0x0000000000000160       0x20 build/cooja/mtype884.a(vib-sensor.o)
 .debug_aranges
                0x0000000000000180       0x20 build/cooja/mtype884.a(clock.o)
 .debug_aranges
                0x00000000000001a0       0x20 build/cooja/mtype884.a(cooja-log.o)
 .debug_aranges
                0x00000000000001c0       0x20 build/cooja/mtype884.a(cfs-cooja.o)
 .debug_aranges
                0x00000000000001e0       0x20 build/cooja/mtype884.a(cooja-radio.o)
 .debug_aranges
                0x0000000000000200       0x20 build/cooja/mtype884.a(eeprom.o)
 .debug_aranges
                0x0000000000000220       0x20 build/cooja/mtype884.a(random.o)
 .debug_aranges
                0x0000000000000240       0x20 build/cooja/mtype884.a(sensors.o)
 .debug_aranges
                0x0000000000000260       0x20 build/cooja/mtype884.a(leds.o)
 .debug_aranges
                0x0000000000000280       0x20 build/cooja/mtype884.a(gpio-hal-arch.o)
 .debug_aranges
                0x00000000000002a0       0x20 build/cooja/mtype884.a(buttons.o)
 .debug_aranges
                0x00000000000002c0       0x20 build/cooja/mtype884.a(mqtt.o)
 .debug_aranges
                0x00000000000002e0       0x20 build/cooja/mtype884.a(contiki-main.o)
 .debug_aranges
                0x0000000000000300       0x20 build/cooja/mtype884.a(autostart.o)
 .debug_aranges
                0x0000000000000320       0x20 build/cooja/mtype884.a(ctimer.o)
 .debug_aranges
                0x0000000000000340       0x20 build/cooja/mtype884.a(log.o)
 .debug_aranges
                0x0000000000000360       0x20 build/cooja/mtype884.a(energest.o)
 .debug_aranges
                0x0000000000000380       0x20 build/cooja/mtype884.a(etimer.o)
 .debug_aranges
                0x00000000000003a0       0x20 build/cooja/mtype884.a(node-id.o)
 .debug_aranges
                0x00000000000003c0       0x20 build/cooja/mtype884.a(rtimer.o)
 .debug_aranges
                0x00000000000003e0       0x20 build/cooja/mtype884.a(process.o)
 .debug_aranges
                0x0000000000000400       0x20 build/cooja/mtype884.a(timer.o)
 .debug_aranges
                0x0000000000000420       0x20 build/cooja/mtype884.a(list.o)
 .debug_aranges
                0x0000000000000440       0x20 build/cooja/mtype884.a(button-hal.o)
 .debug_aranges
                0x0000000000000460       0x20 build/cooja/mtype884.a(serial-line.o)
 .debug_aranges
                0x0000000000000480       0x20 build/cooja/mtype884.a(gpio-hal.o)
 .debug_aranges
                0x00000000000004a0       0x20 build/cooja/mtype884.a(queuebuf.o)
 .debug_aranges
                0x00000000000004c0       0x20 build/cooja/mtype884.a(packetbuf.o)
 .debug_aranges
                0x00000000000004e0       0x20 build/cooja/mtype884.a(netstack.o)
 .debug_aranges
                0x0000000000000500       0x20 build/cooja/mtype884.a(linkaddr.o)
 .debug_aranges
                0x0000000000000520       0x20 build/cooja/mtype884.a(csma.o)
 .debug_aranges
                0x0000000000000540       0x20 build/cooja/mtype884.a(csma-output.o)
 .debug_aranges
                0x0000000000000560       0x20 build/cooja/mtype884.a(uip-ds6.o)
 .debug_aranges
                0x0000000000000580       0x20 build/cooja/mtype884.a(tcp-socket.o)
 .debug_aranges
                0x00000000000005a0       0x20 build/cooja/mtype884.a(uip-ds6-route.o)
 .debug_aranges
                0x00000000000005c0       0x20 build/cooja/mtype884.a(tcpip.o)
 .debug_aranges
                0x00000000000005e0       0x20 build/cooja/mtype884.a(uip6.o)
 .debug_aranges
                0x0000000000000600       0x20 build/cooja/mtype884.a(uip-ds6-nbr.o)
 .debug_aranges
                0x0000000000000620       0x20 build/cooja/mtype884.a(uip-nd6.o)
 .debug_aranges
                0x0000000000000640       0x20 build/cooja/mtype884.a(sicslowpan.o)
 .debug_aranges
                0x0000000000000660       0x20 build/cooja/mtype884.a(uiplib.o)
 .debug_aranges
                0x0000000000000680       0x20 build/cooja/mtype884.a(rpl.o)
 .debug_aranges
                0x00000000000006a0       0x20 build/cooja/mtype884.a(rpl-icmp6.o)
 .debug_aranges
                0x00000000000006c0       0x20 build/cooja/mtype884.a(rpl-dag-root.o)
 .debug_aranges
                0x00000000000006e0       0x20 build/cooja/mtype884.a(watchdog.o)
 .debug_aranges
                0x0000000000000700       0x20 build/cooja/mtype884.a(int-master.o)
 .debug_aranges
                0x0000000000000720       0x20 build/cooja/mtype884.a(stimer.o)
 .debug_aranges
                0x0000000000000740       0x20 build/cooja/mtype884.a(ringbuf.o)
 .debug_aranges
                0x0000000000000760       0x20 build/cooja/mtype884.a(memb.o)
 .debug_aranges
                0x0000000000000780       0x20 build/cooja/mtype884.a(assert.o)
 .debug_aranges
                0x00000000000007a0       0x20 build/cooja/mtype884.a(nbr-table.o)
 .debug_aranges
                0x00000000000007c0       0x20 build/cooja/mtype884.a(link-stats.o)
 .debug_aranges
                0x00000000000007e0       0x20 build/cooja/mtype884.a(mac-sequence.o)
 .debug_aranges
                0x0000000000000800       0x20 build/cooja/mtype884.a(mac.o)
 .debug_aranges
                0x0000000000000820       0x20 build/cooja/mtype884.a(framer-802154.o)
 .debug_aranges
                0x0000000000000840       0x20 build/cooja/mtype884.a(frame802154.o)
 .debug_aranges
                0x0000000000000860       0x20 build/cooja/mtype884.a(csma-security.o)
 .debug_aranges
                0x0000000000000880       0x20 build/cooja/mtype884.a(uipbuf.o)
 .debug_aranges
                0x00000000000008a0       0x20 build/cooja/mtype884.a(uip-icmp6.o)
 .debug_aranges
                0x00000000000008c0       0x20 build/cooja/mtype884.a(uip-sr.o)
 .debug_aranges
                0x00000000000008e0       0x20 build/cooja/mtype884.a(uip-packetqueue)
 .debug_aranges
                0x0000000000000900       0x20 build/cooja/mtype884.a(rpl-nbr-policy.)
 .debug_aranges
                0x0000000000000920       0x20 build/cooja/mtype884.a(rpl-neighbor.o)
 .debug_aranges
                0x0000000000000940       0x20 build/cooja/mtype884.a(rpl-dag.o)
 .debug_aranges
                0x0000000000000960       0x20 build/cooja/mtype884.a(rpl-timers.o)
 .debug_aranges
                0x0000000000000980       0x20 build/cooja/mtype884.a(rpl-ext-header.)
 .debug_aranges
                0x00000000000009a0       0x20 build/cooja/mtype884.a(rpl-mrhof.o)

.debug_pubnames
 *(.debug_pubnames)

.debug_info     0x0000000000000000    0x44c03
 *(.debug_info .gnu.linkonce.wi.*)
 .debug_info    0x0000000000000000     0x1e73 temperature-sensor.o
 .debug_info    0x0000000000001e73     0x4164 build/cooja/mtype884.o
 .debug_info    0x0000000000005fd7      0x515 build/cooja/mtype884.a(simEnvChange.o)
 .debug_info    0x00000000000064ec      0x2df build/cooja/mtype884.a(cooja_mt.o)
 .debug_info    0x00000000000067cb      0x5f2 build/cooja/mtype884.a(cooja_mtarch.o)
 .debug_info    0x0000000000006dbd      0x30e build/cooja/mtype884.a(rtimer-arch.o)
 .debug_info    0x00000000000070cb      0x334 build/cooja/mtype884.a(beep.o)
 .debug_info    0x00000000000073ff      0x2e8 build/cooja/mtype884.a(leds-arch.o)
 .debug_info    0x00000000000076e7      0x261 build/cooja/mtype884.a(moteid.o)
 .debug_info    0x0000000000007948      0x37f build/cooja/mtype884.a(pir-sensor.o)
 .debug_info    0x0000000000007cc7      0x61e build/cooja/mtype884.a(rs232.o)
 .debug_info    0x00000000000082e5      0x37f build/cooja/mtype884.a(vib-sensor.o)
 .debug_info    0x0000000000008664      0x293 build/cooja/mtype884.a(clock.o)
 .debug_info    0x00000000000088f7      0x686 build/cooja/mtype884.a(cooja-log.o)
 .debug_info    0x0000000000008f7d      0x798 build/cooja/mtype884.a(cfs-cooja.o)
 .debug_info    0x0000000000009715     0x1344 build/cooja/mtype884.a(cooja-radio.o)
 .debug_info    0x000000000000aa59      0x31e build/cooja/mtype884.a(eeprom.o)
 .debug_info    0x000000000000ad77       0xa8 build/cooja/mtype884.a(random.o)
 .debug_info    0x000000000000ae1f      0x3f5 build/cooja/mtype884.a(sensors.o)
 .debug_info    0x000000000000b214      0x3da build/cooja/mtype884.a(leds.o)
 .debug_info    0x000000000000b5ee      0xcb0 build/cooja/mtype884.a(gpio-hal-arch.o)
 .debug_info    0x000000000000c29e      0xcea build/cooja/mtype884.a(buttons.o)
 .debug_info    0x000000000000cf88     0x2814 build/cooja/mtype884.a(mqtt.o)
 .debug_info    0x000000000000f79c     0x2067 build/cooja/mtype884.a(contiki-main.o)
 .debug_info    0x0000000000011803      0x225 build/cooja/mtype884.a(autostart.o)
 .debug_info    0x0000000000011a28      0x4d6 build/cooja/mtype884.a(ctimer.o)
 .debug_info    0x0000000000011efe      0xc41 build/cooja/mtype884.a(log.o)
 .debug_info    0x0000000000012b3f      0x210 build/cooja/mtype884.a(energest.o)
 .debug_info    0x0000000000012d4f      0x4fe build/cooja/mtype884.a(etimer.o)
 .debug_info    0x000000000001324d      0x60d build/cooja/mtype884.a(node-id.o)
 .debug_info    0x000000000001385a      0x314 build/cooja/mtype884.a(rtimer.o)
 .debug_info    0x0000000000013b6e      0x7b2 build/cooja/mtype884.a(process.o)
 .debug_info    0x0000000000014320      0x2b8 build/cooja/mtype884.a(timer.o)
 .debug_info    0x00000000000145d8      0x4ce build/cooja/mtype884.a(list.o)
 .debug_info    0x0000000000014aa6      0x70a build/cooja/mtype884.a(button-hal.o)
 .debug_info    0x00000000000151b0      0x365 build/cooja/mtype884.a(serial-line.o)
 .debug_info    0x0000000000015515      0xb0d build/cooja/mtype884.a(gpio-hal.o)
 .debug_info    0x0000000000016022     0x15ae build/cooja/mtype884.a(queuebuf.o)
 .debug_info    0x00000000000175d0     0x1572 build/cooja/mtype884.a(packetbuf.o)
 .debug_info    0x0000000000018b42      0x73d build/cooja/mtype884.a(netstack.o)
 .debug_info    0x000000000001927f      0x2e9 build/cooja/mtype884.a(linkaddr.o)
 .debug_info    0x0000000000019568      0xf09 build/cooja/mtype884.a(csma.o)
 .debug_info    0x000000000001a471     0x155b build/cooja/mtype884.a(csma-output.o)
 .debug_info    0x000000000001b9cc     0x1672 build/cooja/mtype884.a(uip-ds6.o)
 .debug_info    0x000000000001d03e     0x19ce build/cooja/mtype884.a(tcp-socket.o)
 .debug_info    0x000000000001ea0c     0x1647 build/cooja/mtype884.a(uip-ds6-route.o)
 .debug_info    0x0000000000020053     0x1c56 build/cooja/mtype884.a(tcpip.o)
 .debug_info    0x0000000000021ca9     0x1df5 build/cooja/mtype884.a(uip6.o)
 .debug_info    0x0000000000023a9e     0x1830 build/cooja/mtype884.a(uip-ds6-nbr.o)
 .debug_info    0x00000000000252ce     0x14a1 build/cooja/mtype884.a(uip-nd6.o)
 .debug_info    0x000000000002676f     0x2351 build/cooja/mtype884.a(sicslowpan.o)
 .debug_info    0x0000000000028ac0      0xb2c build/cooja/mtype884.a(uiplib.o)
 .debug_info    0x00000000000295ec     0x1c2f build/cooja/mtype884.a(rpl.o)
 .debug_info    0x000000000002b21b     0x1da0 build/cooja/mtype884.a(rpl-icmp6.o)
 .debug_info    0x000000000002cfbb     0x1ab8 build/cooja/mtype884.a(rpl-dag-root.o)
 .debug_info    0x000000000002ea73      0x218 build/cooja/mtype884.a(watchdog.o)
 .debug_info    0x000000000002ec8b      0x26d build/cooja/mtype884.a(int-master.o)
 .debug_info    0x000000000002eef8      0x2d0 build/cooja/mtype884.a(stimer.o)
 .debug_info    0x000000000002f1c8      0x30c build/cooja/mtype884.a(ringbuf.o)
 .debug_info    0x000000000002f4d4      0x32b build/cooja/mtype884.a(memb.o)
 .debug_info    0x000000000002f7ff      0x482 build/cooja/mtype884.a(assert.o)
 .debug_info    0x000000000002fc81     0x16c7 build/cooja/mtype884.a(nbr-table.o)
 .debug_info    0x0000000000031348     0x1183 build/cooja/mtype884.a(link-stats.o)
 .debug_info    0x00000000000324cb     0x1248 build/cooja/mtype884.a(mac-sequence.o)
 .debug_info    0x0000000000033713      0x9c4 build/cooja/mtype884.a(mac.o)
 .debug_info    0x00000000000340d7      0xd4d build/cooja/mtype884.a(framer-802154.o)
 .debug_info    0x0000000000034e24      0xc04 build/cooja/mtype884.a(frame802154.o)
 .debug_info    0x0000000000035a28      0xe23 build/cooja/mtype884.a(csma-security.o)
 .debug_info    0x000000000003684b      0xa60 build/cooja/mtype884.a(uipbuf.o)
 .debug_info    0x00000000000372ab     0x1880 build/cooja/mtype884.a(uip-icmp6.o)
 .debug_info    0x0000000000038b2b     0x1606 build/cooja/mtype884.a(uip-sr.o)
 .debug_info    0x000000000003a131      0xb71 build/cooja/mtype884.a(uip-packetqueue)
 .debug_info    0x000000000003aca2     0x15bd build/cooja/mtype884.a(rpl-nbr-policy.)
 .debug_info    0x000000000003c25f     0x1b24 build/cooja/mtype884.a(rpl-neighbor.o)
 .debug_info    0x000000000003dd83     0x1cee build/cooja/mtype884.a(rpl-dag.o)
 .debug_info    0x000000000003fa71     0x1a40 build/cooja/mtype884.a(rpl-timers.o)
 .debug_info    0x00000000000414b1     0x1f88 build/cooja/mtype884.a(rpl-ext-header.)
 .debug_info    0x0000000000043439     0x17ca build/cooja/mtype884.a(rpl-mrhof.o)

.debug_abbrev   0x0000000000000000     0xac9b
 *(.debug_abbrev)
 .debug_abbrev  0x0000000000000000      0x2b1 temperature-sensor.o
 .debug_abbrev  0x00000000000002b1      0x330 build/cooja/mtype884.o
 .debug_abbrev  0x00000000000005e1      0x167 build/cooja/mtype884.a(simEnvChange.o)
 .debug_abbrev  0x0000000000000748      0x188 build/cooja/mtype884.a(cooja_mt.o)
 .debug_abbrev  0x00000000000008d0      0x1c0 build/cooja/mtype884.a(cooja_mtarch.o)
 .debug_abbrev  0x0000000000000a90      0x18f build/cooja/mtype884.a(rtimer-arch.o)
 .debug_abbrev  0x0000000000000c1f      0x18f build/cooja/mtype884.a(beep.o)
 .debug_abbrev  0x0000000000000dae      0x15c build/cooja/mtype884.a(leds-arch.o)
 .debug_abbrev  0x0000000000000f0a      0x14a build/cooja/mtype884.a(moteid.o)
 .debug_abbrev  0x0000000000001054      0x19a build/cooja/mtype884.a(pir-sensor.o)
 .debug_abbrev  0x00000000000011ee      0x1ed build/cooja/mtype884.a(rs232.o)
 .debug_abbrev  0x00000000000013db      0x19a build/cooja/mtype884.a(vib-sensor.o)
 .debug_abbrev  0x0000000000001575      0x18f build/cooja/mtype884.a(clock.o)
 .debug_abbrev  0x0000000000001704      0x201 build/cooja/mtype884.a(cooja-log.o)
 .debug_abbrev  0x0000000000001905      0x1eb build/cooja/mtype884.a(cfs-cooja.o)
 .debug_abbrev  0x0000000000001af0      0x399 build/cooja/mtype884.a(cooja-radio.o)
 .debug_abbrev  0x0000000000001e89      0x180 build/cooja/mtype884.a(eeprom.o)
 .debug_abbrev  0x0000000000002009       0x6b build/cooja/mtype884.a(random.o)
 .debug_abbrev  0x0000000000002074      0x1cd build/cooja/mtype884.a(sensors.o)
 .debug_abbrev  0x0000000000002241      0x183 build/cooja/mtype884.a(leds.o)
 .debug_abbrev  0x00000000000023c4      0x24a build/cooja/mtype884.a(gpio-hal-arch.o)
 .debug_abbrev  0x000000000000260e      0x210 build/cooja/mtype884.a(buttons.o)
 .debug_abbrev  0x000000000000281e      0x350 build/cooja/mtype884.a(mqtt.o)
 .debug_abbrev  0x0000000000002b6e      0x239 build/cooja/mtype884.a(contiki-main.o)
 .debug_abbrev  0x0000000000002da7      0x12b build/cooja/mtype884.a(autostart.o)
 .debug_abbrev  0x0000000000002ed2      0x1be build/cooja/mtype884.a(ctimer.o)
 .debug_abbrev  0x0000000000003090      0x230 build/cooja/mtype884.a(log.o)
 .debug_abbrev  0x00000000000032c0      0x10d build/cooja/mtype884.a(energest.o)
 .debug_abbrev  0x00000000000033cd      0x229 build/cooja/mtype884.a(etimer.o)
 .debug_abbrev  0x00000000000035f6      0x180 build/cooja/mtype884.a(node-id.o)
 .debug_abbrev  0x0000000000003776      0x1a6 build/cooja/mtype884.a(rtimer.o)
 .debug_abbrev  0x000000000000391c      0x27b build/cooja/mtype884.a(process.o)
 .debug_abbrev  0x0000000000003b97      0x174 build/cooja/mtype884.a(timer.o)
 .debug_abbrev  0x0000000000003d0b      0x1e2 build/cooja/mtype884.a(list.o)
 .debug_abbrev  0x0000000000003eed      0x256 build/cooja/mtype884.a(button-hal.o)
 .debug_abbrev  0x0000000000004143      0x1a0 build/cooja/mtype884.a(serial-line.o)
 .debug_abbrev  0x00000000000042e3      0x1ef build/cooja/mtype884.a(gpio-hal.o)
 .debug_abbrev  0x00000000000044d2      0x2c4 build/cooja/mtype884.a(queuebuf.o)
 .debug_abbrev  0x0000000000004796      0x2dd build/cooja/mtype884.a(packetbuf.o)
 .debug_abbrev  0x0000000000004a73      0x207 build/cooja/mtype884.a(netstack.o)
 .debug_abbrev  0x0000000000004c7a      0x177 build/cooja/mtype884.a(linkaddr.o)
 .debug_abbrev  0x0000000000004df1      0x27f build/cooja/mtype884.a(csma.o)
 .debug_abbrev  0x0000000000005070      0x2e1 build/cooja/mtype884.a(csma-output.o)
 .debug_abbrev  0x0000000000005351      0x31e build/cooja/mtype884.a(uip-ds6.o)
 .debug_abbrev  0x000000000000566f      0x302 build/cooja/mtype884.a(tcp-socket.o)
 .debug_abbrev  0x0000000000005971      0x334 build/cooja/mtype884.a(uip-ds6-route.o)
 .debug_abbrev  0x0000000000005ca5      0x3c4 build/cooja/mtype884.a(tcpip.o)
 .debug_abbrev  0x0000000000006069      0x36d build/cooja/mtype884.a(uip6.o)
 .debug_abbrev  0x00000000000063d6      0x2ec build/cooja/mtype884.a(uip-ds6-nbr.o)
 .debug_abbrev  0x00000000000066c2      0x272 build/cooja/mtype884.a(uip-nd6.o)
 .debug_abbrev  0x0000000000006934      0x34e build/cooja/mtype884.a(sicslowpan.o)
 .debug_abbrev  0x0000000000006c82      0x1fd build/cooja/mtype884.a(uiplib.o)
 .debug_abbrev  0x0000000000006e7f      0x31d build/cooja/mtype884.a(rpl.o)
 .debug_abbrev  0x000000000000719c      0x35d build/cooja/mtype884.a(rpl-icmp6.o)
 .debug_abbrev  0x00000000000074f9      0x29b build/cooja/mtype884.a(rpl-dag-root.o)
 .debug_abbrev  0x0000000000007794      0x10b build/cooja/mtype884.a(watchdog.o)
 .debug_abbrev  0x000000000000789f      0x170 build/cooja/mtype884.a(int-master.o)
 .debug_abbrev  0x0000000000007a0f      0x165 build/cooja/mtype884.a(stimer.o)
 .debug_abbrev  0x0000000000007b74      0x15a build/cooja/mtype884.a(ringbuf.o)
 .debug_abbrev  0x0000000000007cce      0x15a build/cooja/mtype884.a(memb.o)
 .debug_abbrev  0x0000000000007e28      0x13d build/cooja/mtype884.a(assert.o)
 .debug_abbrev  0x0000000000007f65      0x35d build/cooja/mtype884.a(nbr-table.o)
 .debug_abbrev  0x00000000000082c2      0x2d5 build/cooja/mtype884.a(link-stats.o)
 .debug_abbrev  0x0000000000008597      0x22a build/cooja/mtype884.a(mac-sequence.o)
 .debug_abbrev  0x00000000000087c1      0x1ae build/cooja/mtype884.a(mac.o)
 .debug_abbrev  0x000000000000896f      0x22e build/cooja/mtype884.a(framer-802154.o)
 .debug_abbrev  0x0000000000008b9d      0x2cc build/cooja/mtype884.a(frame802154.o)
 .debug_abbrev  0x0000000000008e69      0x1d4 build/cooja/mtype884.a(csma-security.o)
 .debug_abbrev  0x000000000000903d      0x224 build/cooja/mtype884.a(uipbuf.o)
 .debug_abbrev  0x0000000000009261      0x2c9 build/cooja/mtype884.a(uip-icmp6.o)
 .debug_abbrev  0x000000000000952a      0x2c9 build/cooja/mtype884.a(uip-sr.o)
 .debug_abbrev  0x00000000000097f3      0x254 build/cooja/mtype884.a(uip-packetqueue)
 .debug_abbrev  0x0000000000009a47      0x23b build/cooja/mtype884.a(rpl-nbr-policy.)
 .debug_abbrev  0x0000000000009c82      0x377 build/cooja/mtype884.a(rpl-neighbor.o)
 .debug_abbrev  0x0000000000009ff9      0x3d6 build/cooja/mtype884.a(rpl-dag.o)
 .debug_abbrev  0x000000000000a3cf      0x32e build/cooja/mtype884.a(rpl-timers.o)
 .debug_abbrev  0x000000000000a6fd      0x32f build/cooja/mtype884.a(rpl-ext-header.)
 .debug_abbrev  0x000000000000aa2c      0x26f build/cooja/mtype884.a(rpl-mrhof.o)

.debug_line     0x0000000000000000     0xf603
 *(.debug_line .debug_line.* .debug_line_end)
 .debug_line    0x0000000000000000      0x4b5 temperature-sensor.o
 .debug_line    0x00000000000004b5      0x4d8 build/cooja/mtype884.o
 .debug_line    0x000000000000098d      0x1c3 build/cooja/mtype884.a(simEnvChange.o)
 .debug_line    0x0000000000000b50      0x157 build/cooja/mtype884.a(cooja_mt.o)
 .debug_line    0x0000000000000ca7      0x1fe build/cooja/mtype884.a(cooja_mtarch.o)
 .debug_line    0x0000000000000ea5      0x193 build/cooja/mtype884.a(rtimer-arch.o)
 .debug_line    0x0000000000001038      0x11e build/cooja/mtype884.a(beep.o)
 .debug_line    0x0000000000001156      0x179 build/cooja/mtype884.a(leds-arch.o)
 .debug_line    0x00000000000012cf      0x136 build/cooja/mtype884.a(moteid.o)
 .debug_line    0x0000000000001405      0x171 build/cooja/mtype884.a(pir-sensor.o)
 .debug_line    0x0000000000001576      0x21a build/cooja/mtype884.a(rs232.o)
 .debug_line    0x0000000000001790      0x171 build/cooja/mtype884.a(vib-sensor.o)
 .debug_line    0x0000000000001901      0x10f build/cooja/mtype884.a(clock.o)
 .debug_line    0x0000000000001a10      0x1f4 build/cooja/mtype884.a(cooja-log.o)
 .debug_line    0x0000000000001c04      0x224 build/cooja/mtype884.a(cfs-cooja.o)
 .debug_line    0x0000000000001e28      0x383 build/cooja/mtype884.a(cooja-radio.o)
 .debug_line    0x00000000000021ab      0x140 build/cooja/mtype884.a(eeprom.o)
 .debug_line    0x00000000000022eb       0x4d build/cooja/mtype884.a(random.o)
 .debug_line    0x0000000000002338      0x1a2 build/cooja/mtype884.a(sensors.o)
 .debug_line    0x00000000000024da      0x200 build/cooja/mtype884.a(leds.o)
 .debug_line    0x00000000000026da      0x2e4 build/cooja/mtype884.a(gpio-hal-arch.o)
 .debug_line    0x00000000000029be      0x277 build/cooja/mtype884.a(buttons.o)
 .debug_line    0x0000000000002c35      0xf9b build/cooja/mtype884.a(mqtt.o)
 .debug_line    0x0000000000003bd0      0x574 build/cooja/mtype884.a(contiki-main.o)
 .debug_line    0x0000000000004144      0x114 build/cooja/mtype884.a(autostart.o)
 .debug_line    0x0000000000004258      0x1b7 build/cooja/mtype884.a(ctimer.o)
 .debug_line    0x000000000000440f      0x288 build/cooja/mtype884.a(log.o)
 .debug_line    0x0000000000004697      0x12b build/cooja/mtype884.a(energest.o)
 .debug_line    0x00000000000047c2      0x1e8 build/cooja/mtype884.a(etimer.o)
 .debug_line    0x00000000000049aa      0x176 build/cooja/mtype884.a(node-id.o)
 .debug_line    0x0000000000004b20      0x150 build/cooja/mtype884.a(rtimer.o)
 .debug_line    0x0000000000004c70      0x295 build/cooja/mtype884.a(process.o)
 .debug_line    0x0000000000004f05      0x10f build/cooja/mtype884.a(timer.o)
 .debug_line    0x0000000000005014      0x1bf build/cooja/mtype884.a(list.o)
 .debug_line    0x00000000000051d3      0x291 build/cooja/mtype884.a(button-hal.o)
 .debug_line    0x0000000000005464      0x1d3 build/cooja/mtype884.a(serial-line.o)
 .debug_line    0x0000000000005637      0x23f build/cooja/mtype884.a(gpio-hal.o)
 .debug_line    0x0000000000005876      0x364 build/cooja/mtype884.a(queuebuf.o)
 .debug_line    0x0000000000005bda      0x39f build/cooja/mtype884.a(packetbuf.o)
 .debug_line    0x0000000000005f79      0x216 build/cooja/mtype884.a(netstack.o)
 .debug_line    0x000000000000618f      0x14a build/cooja/mtype884.a(linkaddr.o)
 .debug_line    0x00000000000062d9      0x2bb build/cooja/mtype884.a(csma.o)
 .debug_line    0x0000000000006594      0x42a build/cooja/mtype884.a(csma-output.o)
 .debug_line    0x00000000000069be      0x4ed build/cooja/mtype884.a(uip-ds6.o)
 .debug_line    0x0000000000006eab      0x4af build/cooja/mtype884.a(tcp-socket.o)
 .debug_line    0x000000000000735a      0x3c6 build/cooja/mtype884.a(uip-ds6-route.o)
 .debug_line    0x0000000000007720      0x578 build/cooja/mtype884.a(tcpip.o)
 .debug_line    0x0000000000007c98      0xbad build/cooja/mtype884.a(uip6.o)
 .debug_line    0x0000000000008845      0x3fa build/cooja/mtype884.a(uip-ds6-nbr.o)
 .debug_line    0x0000000000008c3f      0x457 build/cooja/mtype884.a(uip-nd6.o)
 .debug_line    0x0000000000009096      0xc00 build/cooja/mtype884.a(sicslowpan.o)
 .debug_line    0x0000000000009c96      0x302 build/cooja/mtype884.a(uiplib.o)
 .debug_line    0x0000000000009f98      0x47d build/cooja/mtype884.a(rpl.o)
 .debug_line    0x000000000000a415      0x5d3 build/cooja/mtype884.a(rpl-icmp6.o)
 .debug_line    0x000000000000a9e8      0x3ee build/cooja/mtype884.a(rpl-dag-root.o)
 .debug_line    0x000000000000add6      0x110 build/cooja/mtype884.a(watchdog.o)
 .debug_line    0x000000000000aee6      0x143 build/cooja/mtype884.a(int-master.o)
 .debug_line    0x000000000000b029      0x118 build/cooja/mtype884.a(stimer.o)
 .debug_line    0x000000000000b141      0x16a build/cooja/mtype884.a(ringbuf.o)
 .debug_line    0x000000000000b2ab      0x169 build/cooja/mtype884.a(memb.o)
 .debug_line    0x000000000000b414      0x187 build/cooja/mtype884.a(assert.o)
 .debug_line    0x000000000000b59b      0x476 build/cooja/mtype884.a(nbr-table.o)
 .debug_line    0x000000000000ba11      0x36e build/cooja/mtype884.a(link-stats.o)
 .debug_line    0x000000000000bd7f      0x347 build/cooja/mtype884.a(mac-sequence.o)
 .debug_line    0x000000000000c0c6      0x1ed build/cooja/mtype884.a(mac.o)
 .debug_line    0x000000000000c2b3      0x2e0 build/cooja/mtype884.a(framer-802154.o)
 .debug_line    0x000000000000c593      0x3bb build/cooja/mtype884.a(frame802154.o)
 .debug_line    0x000000000000c94e      0x292 build/cooja/mtype884.a(csma-security.o)
 .debug_line    0x000000000000cbe0      0x25e build/cooja/mtype884.a(uipbuf.o)
 .debug_line    0x000000000000ce3e      0x45b build/cooja/mtype884.a(uip-icmp6.o)
 .debug_line    0x000000000000d299      0x42b build/cooja/mtype884.a(uip-sr.o)
 .debug_line    0x000000000000d6c4      0x25d build/cooja/mtype884.a(uip-packetqueue)
 .debug_line    0x000000000000d921      0x322 build/cooja/mtype884.a(rpl-nbr-policy.)
 .debug_line    0x000000000000dc43      0x526 build/cooja/mtype884.a(rpl-neighbor.o)
 .debug_line    0x000000000000e169      0x5e6 build/cooja/mtype884.a(rpl-dag.o)
 .debug_line    0x000000000000e74f      0x4db build/cooja/mtype884.a(rpl-timers.o)
 .debug_line    0x000000000000ec2a      0x5a9 build/cooja/mtype884.a(rpl-ext-header.)
 .debug_line    0x000000000000f1d3      0x430 build/cooja/mtype884.a(rpl-mrhof.o)

.debug_frame
 *(.debug_frame)

.debug_str      0x0000000000000000     0x9bb5
 *(.debug_str)
 .debug_str     0x0000000000000000     0x158b temperature-sensor.o
                                       0x1916 (size before relaxing)
 .debug_str     0x000000000000158b     0x1717 build/cooja/mtype884.o
                                       0x2383 (size before relaxing)
 .debug_str     0x0000000000002ca2       0x2d build/cooja/mtype884.a(simEnvChange.o)
                                        0x465 (size before relaxing)
 .debug_str     0x0000000000002ccf       0x55 build/cooja/mtype884.a(cooja_mt.o)
                                        0x2b2 (size before relaxing)
 .debug_str     0x0000000000002d24       0x94 build/cooja/mtype884.a(cooja_mtarch.o)
                                        0x4d4 (size before relaxing)
 .debug_str     0x0000000000002db8      0x11b build/cooja/mtype884.a(rtimer-arch.o)
                                        0x35e (size before relaxing)
 .debug_str     0x0000000000002ed3       0xc3 build/cooja/mtype884.a(beep.o)
                                        0x31a (size before relaxing)
 .debug_str     0x0000000000002f96       0x9b build/cooja/mtype884.a(leds-arch.o)
                                        0x33e (size before relaxing)
 .debug_str     0x0000000000003031       0x46 build/cooja/mtype884.a(moteid.o)
                                        0x2dd (size before relaxing)
 .debug_str     0x0000000000003077       0x54 build/cooja/mtype884.a(pir-sensor.o)
                                        0x332 (size before relaxing)
 .debug_str     0x00000000000030cb       0xc0 build/cooja/mtype884.a(rs232.o)
                                        0x59b (size before relaxing)
 .debug_str     0x000000000000318b       0x54 build/cooja/mtype884.a(vib-sensor.o)
                                        0x332 (size before relaxing)
 .debug_str     0x00000000000031df       0x61 build/cooja/mtype884.a(clock.o)
                                        0x2ed (size before relaxing)
 .debug_str     0x0000000000003240       0xd6 build/cooja/mtype884.a(cooja-log.o)
                                        0x57b (size before relaxing)
 .debug_str     0x0000000000003316      0x10b build/cooja/mtype884.a(cfs-cooja.o)
                                        0x586 (size before relaxing)
 .debug_str     0x0000000000003421      0x6aa build/cooja/mtype884.a(cooja-radio.o)
                                       0x1003 (size before relaxing)
 .debug_str     0x0000000000003acb       0x98 build/cooja/mtype884.a(eeprom.o)
                                        0x32a (size before relaxing)
 .debug_str     0x0000000000003b63       0x33 build/cooja/mtype884.a(random.o)
                                        0x147 (size before relaxing)
 .debug_str     0x0000000000003b96       0x8b build/cooja/mtype884.a(sensors.o)
                                        0x325 (size before relaxing)
 .debug_str     0x0000000000003c21       0x8a build/cooja/mtype884.a(leds.o)
                                        0x307 (size before relaxing)
 .debug_str     0x0000000000003cab      0x2a5 build/cooja/mtype884.a(gpio-hal-arch.o)
                                        0xa3b (size before relaxing)
 .debug_str     0x0000000000003f50       0xf4 build/cooja/mtype884.a(buttons.o)
                                        0xa14 (size before relaxing)
 .debug_str     0x0000000000004044      0x769 build/cooja/mtype884.a(mqtt.o)
                                       0x1dcb (size before relaxing)
 .debug_str     0x00000000000047ad      0xb08 build/cooja/mtype884.a(contiki-main.o)
                                       0x1af6 (size before relaxing)
 .debug_str     0x00000000000052b5       0x38 build/cooja/mtype884.a(autostart.o)
                                        0x251 (size before relaxing)
 .debug_str     0x00000000000052ed       0xcf build/cooja/mtype884.a(ctimer.o)
                                        0x335 (size before relaxing)
 .debug_str     0x00000000000053bc       0xb0 build/cooja/mtype884.a(log.o)
                                        0x85d (size before relaxing)
 .debug_str     0x000000000000546c       0x4d build/cooja/mtype884.a(energest.o)
                                        0x270 (size before relaxing)
 .debug_str     0x00000000000054b9      0x150 build/cooja/mtype884.a(etimer.o)
                                        0x399 (size before relaxing)
 .debug_str     0x0000000000005609       0x24 build/cooja/mtype884.a(node-id.o)
                                        0x48b (size before relaxing)
 .debug_str     0x000000000000562d       0xb0 build/cooja/mtype884.a(rtimer.o)
                                        0x2f4 (size before relaxing)
 .debug_str     0x00000000000056dd      0x147 build/cooja/mtype884.a(process.o)
                                        0x551 (size before relaxing)
 .debug_str     0x0000000000005824       0x15 build/cooja/mtype884.a(timer.o)
                                        0x280 (size before relaxing)
 .debug_str     0x0000000000005839       0xb4 build/cooja/mtype884.a(list.o)
                                        0x2df (size before relaxing)
 .debug_str     0x00000000000058ed      0x194 build/cooja/mtype884.a(button-hal.o)
                                        0x588 (size before relaxing)
 .debug_str     0x0000000000005a81       0x80 build/cooja/mtype884.a(serial-line.o)
                                        0x30a (size before relaxing)
 .debug_str     0x0000000000005b01       0xfa build/cooja/mtype884.a(gpio-hal.o)
                                        0x900 (size before relaxing)
 .debug_str     0x0000000000005bfb      0x1ca build/cooja/mtype884.a(queuebuf.o)
                                        0xeeb (size before relaxing)
 .debug_str     0x0000000000005dc5      0x1b4 build/cooja/mtype884.a(packetbuf.o)
                                        0xf20 (size before relaxing)
 .debug_str     0x0000000000005f79      0x167 build/cooja/mtype884.a(netstack.o)
                                        0x5cb (size before relaxing)
 .debug_str     0x00000000000060e0       0x4a build/cooja/mtype884.a(linkaddr.o)
                                        0x2aa (size before relaxing)
 .debug_str     0x000000000000612a       0x82 build/cooja/mtype884.a(csma.o)
                                        0xdff (size before relaxing)
 .debug_str     0x00000000000061ac      0x297 build/cooja/mtype884.a(csma-output.o)
                                        0xebc (size before relaxing)
 .debug_str     0x0000000000006443      0x2e7 build/cooja/mtype884.a(uip-ds6.o)
                                        0xeb8 (size before relaxing)
 .debug_str     0x000000000000672a      0x1e5 build/cooja/mtype884.a(tcp-socket.o)
                                       0x1116 (size before relaxing)
 .debug_str     0x000000000000690f      0x248 build/cooja/mtype884.a(uip-ds6-route.o)
                                        0xf68 (size before relaxing)
 .debug_str     0x0000000000006b57      0x329 build/cooja/mtype884.a(tcpip.o)
                                       0x12a5 (size before relaxing)
 .debug_str     0x0000000000006e80      0x30a build/cooja/mtype884.a(uip6.o)
                                       0x1293 (size before relaxing)
 .debug_str     0x000000000000718a      0x1c2 build/cooja/mtype884.a(uip-ds6-nbr.o)
                                       0x1158 (size before relaxing)
 .debug_str     0x000000000000734c      0x11d build/cooja/mtype884.a(uip-nd6.o)
                                        0xed6 (size before relaxing)
 .debug_str     0x0000000000007469      0x595 build/cooja/mtype884.a(sicslowpan.o)
                                       0x17e9 (size before relaxing)
 .debug_str     0x00000000000079fe       0x90 build/cooja/mtype884.a(uiplib.o)
                                        0x814 (size before relaxing)
 .debug_str     0x0000000000007a8e      0x11f build/cooja/mtype884.a(rpl.o)
                                       0x13af (size before relaxing)
 .debug_str     0x0000000000007bad      0x1dd build/cooja/mtype884.a(rpl-icmp6.o)
                                       0x158b (size before relaxing)
 .debug_str     0x0000000000007d8a       0xa1 build/cooja/mtype884.a(rpl-dag-root.o)
                                       0x133f (size before relaxing)
 .debug_str     0x0000000000007e2b       0x76 build/cooja/mtype884.a(watchdog.o)
                                        0x285 (size before relaxing)
 .debug_str     0x0000000000007ea1       0x88 build/cooja/mtype884.a(int-master.o)
                                        0x2cc (size before relaxing)
 .debug_str     0x0000000000007f29       0x6c build/cooja/mtype884.a(stimer.o)
                                        0x291 (size before relaxing)
 .debug_str     0x0000000000007f95       0x5a build/cooja/mtype884.a(ringbuf.o)
                                        0x2aa (size before relaxing)
 .debug_str     0x0000000000007fef       0x5a build/cooja/mtype884.a(memb.o)
                                        0x27e (size before relaxing)
 .debug_str     0x0000000000008049       0x26 build/cooja/mtype884.a(assert.o)
                                        0x421 (size before relaxing)
 .debug_str     0x000000000000806f      0x373 build/cooja/mtype884.a(nbr-table.o)
                                        0xd7e (size before relaxing)
 .debug_str     0x00000000000083e2      0x129 build/cooja/mtype884.a(link-stats.o)
                                        0xe7b (size before relaxing)
 .debug_str     0x000000000000850b       0x70 build/cooja/mtype884.a(mac-sequence.o)
                                        0xd7a (size before relaxing)
 .debug_str     0x000000000000857b       0x35 build/cooja/mtype884.a(mac.o)
                                        0x7d8 (size before relaxing)
 .debug_str     0x00000000000085b0      0x22d build/cooja/mtype884.a(framer-802154.o)
                                        0xbd0 (size before relaxing)
 .debug_str     0x00000000000087dd      0x1f2 build/cooja/mtype884.a(frame802154.o)
                                        0x86f (size before relaxing)
 .debug_str     0x00000000000089cf       0x8f build/cooja/mtype884.a(csma-security.o)
                                        0xb83 (size before relaxing)
 .debug_str     0x0000000000008a5e      0x1af build/cooja/mtype884.a(uipbuf.o)
                                        0x773 (size before relaxing)
 .debug_str     0x0000000000008c0d      0x1ed build/cooja/mtype884.a(uip-icmp6.o)
                                       0x110a (size before relaxing)
 .debug_str     0x0000000000008dfa      0x17b build/cooja/mtype884.a(uip-sr.o)
                                        0xebb (size before relaxing)
 .debug_str     0x0000000000008f75       0xf3 build/cooja/mtype884.a(uip-packetqueue)
                                        0x7e8 (size before relaxing)
 .debug_str     0x0000000000009068       0x51 build/cooja/mtype884.a(rpl-nbr-policy.)
                                       0x100f (size before relaxing)
 .debug_str     0x00000000000090b9      0x266 build/cooja/mtype884.a(rpl-neighbor.o)
                                       0x1318 (size before relaxing)
 .debug_str     0x000000000000931f      0x2d8 build/cooja/mtype884.a(rpl-dag.o)
                                       0x1462 (size before relaxing)
 .debug_str     0x00000000000095f7      0x324 build/cooja/mtype884.a(rpl-timers.o)
                                       0x135e (size before relaxing)
 .debug_str     0x000000000000991b      0x1db build/cooja/mtype884.a(rpl-ext-header.)
                                       0x1739 (size before relaxing)
 .debug_str     0x0000000000009af6       0xbf build/cooja/mtype884.a(rpl-mrhof.o)
                                       0x10c1 (size before relaxing)

.debug_loc
 *(.debug_loc)

.debug_macinfo
 *(.debug_macinfo)

.debug_weaknames
 *(.debug_weaknames)

.debug_funcnames
 *(.debug_funcnames)

.debug_typenames
 *(.debug_typenames)

.debug_varnames
 *(.debug_varnames)

.debug_pubtypes
 *(.debug_pubtypes)

.debug_ranges   0x0000000000000000       0x88
 *(.debug_ranges)
 .debug_ranges  0x0000000000000000       0x18 build/cooja/mtype884.a(etimer.o)
 .debug_ranges  0x0000000000000018       0x30 build/cooja/mtype884.a(csma-output.o)
 .debug_ranges  0x0000000000000048       0x18 build/cooja/mtype884.a(tcpip.o)
 .debug_ranges  0x0000000000000060       0x28 build/cooja/mtype884.a(uip-nd6.o)

.debug_macro
 *(.debug_macro)

.debug_addr
 *(.debug_addr)

.gnu.attributes
 *(.gnu.attributes)

/DISCARD/
 *(.note.GNU-stack)
 *(.gnu_debuglink)
 *(.gnu.lto_*)
OUTPUT(build/cooja/mtype884.cooja elf32-i386)
