Archive member included to satisfy reference by file (symbol)

build/cooja/mtype248.a(simEnvChange.o)
                              build/cooja/mtype248.o (simDontFallAsleep)
build/cooja/mtype248.a(cooja_mt.o)
                              build/cooja/mtype248.o (cooja_mt_start)
build/cooja/mtype248.a(cooja_mtarch.o)
                              build/cooja/mtype248.a(cooja_mt.o) (cooja_mtarch_start)
build/cooja/mtype248.a(rtimer-arch.o)
                              build/cooja/mtype248.o (rtimer_arch_check)
build/cooja/mtype248.a(beep.o)
                              build/cooja/mtype248.o (beep_interface)
build/cooja/mtype248.a(leds-arch.o)
                              build/cooja/mtype248.o (leds_interface)
build/cooja/mtype248.a(moteid.o)
                              build/cooja/mtype248.o (moteid_interface)
build/cooja/mtype248.a(pir-sensor.o)
                              build/cooja/mtype248.o (pir_interface)
build/cooja/mtype248.a(rs232.o)
                              build/cooja/mtype248.o (rs232_interface)
build/cooja/mtype248.a(vib-sensor.o)
                              build/cooja/mtype248.o (vib_interface)
build/cooja/mtype248.a(clock.o)
                              build/cooja/mtype248.o (clock_interface)
build/cooja/mtype248.a(cooja-log.o)
                              build/cooja/mtype248.o (simlog_interface)
build/cooja/mtype248.a(cfs-cooja.o)
                              build/cooja/mtype248.o (cfs_interface)
build/cooja/mtype248.a(cooja-radio.o)
                              build/cooja/mtype248.o (radio_interface)
build/cooja/mtype248.a(eeprom.o)
                              build/cooja/mtype248.o (eeprom_interface)
build/cooja/mtype248.a(random.o)
                              build/cooja/mtype248.a(moteid.o) (random_init)
build/cooja/mtype248.a(sensors.o)
                              build/cooja/mtype248.a(pir-sensor.o) (sensors_changed)
build/cooja/mtype248.a(leds.o)
                              build/cooja/mtype248.a(leds-arch.o) (leds_get)
build/cooja/mtype248.a(gpio-hal-arch.o)
                              build/cooja/mtype248.a(leds-arch.o) (gpio_hal_arch_register_pin_callback)
build/cooja/mtype248.a(buttons.o)
                              build/cooja/mtype248.o (button_interface)
build/cooja/mtype248.a(webserver.o)
                              border-router.o (webserver_nogui_process)
build/cooja/mtype248.a(contiki-main.o)
                              build/cooja/mtype248.o (main)
build/cooja/mtype248.a(autostart.o)
                              build/cooja/mtype248.a(contiki-main.o) (autostart_start)
build/cooja/mtype248.a(ctimer.o)
                              build/cooja/mtype248.a(contiki-main.o) (ctimer_init)
build/cooja/mtype248.a(log.o)
                              build/cooja/mtype248.a(contiki-main.o) (curr_log_level_main)
build/cooja/mtype248.a(energest.o)
                              build/cooja/mtype248.a(contiki-main.o) (energest_init)
build/cooja/mtype248.a(etimer.o)
                              build/cooja/mtype248.a(contiki-main.o) (etimer_process)
build/cooja/mtype248.a(node-id.o)
                              build/cooja/mtype248.a(contiki-main.o) (node_id)
build/cooja/mtype248.a(rtimer.o)
                              build/cooja/mtype248.a(contiki-main.o) (rtimer_init)
build/cooja/mtype248.a(process.o)
                              build/cooja/mtype248.a(ctimer.o) (process_current)
build/cooja/mtype248.a(timer.o)
                              build/cooja/mtype248.a(etimer.o) (timer_set)
build/cooja/mtype248.a(list.o)
                              build/cooja/mtype248.a(ctimer.o) (list_init)
build/cooja/mtype248.a(button-hal.o)
                              build/cooja/mtype248.o (button_hal_init)
build/cooja/mtype248.a(serial-line.o)
                              build/cooja/mtype248.a(rs232.o) (serial_line_input_byte)
build/cooja/mtype248.a(gpio-hal.o)
                              build/cooja/mtype248.a(button-hal.o) (gpio_hal_register_handler)
build/cooja/mtype248.a(queuebuf.o)
                              build/cooja/mtype248.a(contiki-main.o) (queuebuf_init)
build/cooja/mtype248.a(packetbuf.o)
                              build/cooja/mtype248.a(cooja-radio.o) (packetbuf_clear)
build/cooja/mtype248.a(netstack.o)
                              build/cooja/mtype248.a(contiki-main.o) (netstack_init)
build/cooja/mtype248.a(linkaddr.o)
                              build/cooja/mtype248.a(contiki-main.o) (linkaddr_node_addr)
build/cooja/mtype248.a(csma.o)
                              build/cooja/mtype248.a(cooja-radio.o) (csma_driver)
build/cooja/mtype248.a(csma-output.o)
                              build/cooja/mtype248.a(csma.o) (csma_output_packet)
build/cooja/mtype248.a(uip-sr.o)
                              build/cooja/mtype248.a(webserver.o) (uip_sr_num_nodes)
build/cooja/mtype248.a(uip-ds6.o)
                              build/cooja/mtype248.a(contiki-main.o) (uip_ds6_get_link_local)
build/cooja/mtype248.a(uip-ds6-route.o)
                              build/cooja/mtype248.a(uip-ds6.o) (uip_ds6_route_init)
build/cooja/mtype248.a(psock.o)
                              build/cooja/mtype248.a(webserver.o) (psock_send)
build/cooja/mtype248.a(tcpip.o)
                              build/cooja/mtype248.a(webserver.o) (tcpip_event)
build/cooja/mtype248.a(uip6.o)
                              build/cooja/mtype248.a(contiki-main.o) (uip_lladdr)
build/cooja/mtype248.a(uip-ds6-nbr.o)
                              build/cooja/mtype248.a(uip-ds6.o) (uip_ds6_neighbors_init)
build/cooja/mtype248.a(uip-nd6.o)
                              build/cooja/mtype248.a(uip6.o) (uip_nd6_init)
build/cooja/mtype248.a(sicslowpan.o)
                              build/cooja/mtype248.a(contiki-main.o) (sicslowpan_driver)
build/cooja/mtype248.a(uiplib.o)
                              build/cooja/mtype248.a(log.o) (uiplib_ipaddr_snprint)
build/cooja/mtype248.a(rpl.o)
                              build/cooja/mtype248.a(webserver.o) (rpl_lite_driver)
build/cooja/mtype248.a(rpl-icmp6.o)
                              build/cooja/mtype248.a(rpl.o) (rpl_icmp6_init)
build/cooja/mtype248.a(rpl-dag-root.o)
                              build/cooja/mtype248.a(rpl.o) (rpl_dag_root_is_root)
build/cooja/mtype248.a(slip-bridge.o)
                              build/cooja/mtype248.a(tcpip.o) (rpl_interface)
build/cooja/mtype248.a(slip.o)
                              build/cooja/mtype248.a(slip-bridge.o) (slip_process)
build/cooja/mtype248.a(watchdog.o)
                              build/cooja/mtype248.a(contiki-main.o) (watchdog_init)
build/cooja/mtype248.a(int-master.o)
                              build/cooja/mtype248.a(button-hal.o) (int_master_read_and_disable)
build/cooja/mtype248.a(slip-arch.o)
                              build/cooja/mtype248.a(slip-bridge.o) (slip_arch_init)
build/cooja/mtype248.a(httpd-simple.o)
                              build/cooja/mtype248.a(webserver.o) (httpd_appcall)
build/cooja/mtype248.a(rpl-border-rout)
                              build/cooja/mtype248.a(slip-bridge.o) (set_prefix_64)
build/cooja/mtype248.a(stimer.o)
                              build/cooja/mtype248.a(uip-ds6.o) (stimer_set)
build/cooja/mtype248.a(ringbuf.o)
                              build/cooja/mtype248.a(serial-line.o) (ringbuf_init)
build/cooja/mtype248.a(memb.o)
                              build/cooja/mtype248.a(queuebuf.o) (memb_init)
build/cooja/mtype248.a(assert.o)
                              build/cooja/mtype248.a(csma-output.o) (_xassert)
build/cooja/mtype248.a(nbr-table.o)
                              build/cooja/mtype248.a(uip-ds6-nbr.o) (nbr_table_get_from_lladdr)
build/cooja/mtype248.a(link-stats.o)
                              build/cooja/mtype248.a(sicslowpan.o) (link_stats_packet_sent)
build/cooja/mtype248.a(mac-sequence.o)
                              build/cooja/mtype248.a(csma.o) (mac_sequence_is_duplicate)
build/cooja/mtype248.a(mac.o)
                              build/cooja/mtype248.a(csma-output.o) (mac_call_sent_callback)
build/cooja/mtype248.a(framer-802154.o)
                              build/cooja/mtype248.a(csma.o) (framer_802154)
build/cooja/mtype248.a(frame802154.o)
                              build/cooja/mtype248.a(framer-802154.o) (frame802154_get_pan_id)
build/cooja/mtype248.a(csma-security.o)
                              build/cooja/mtype248.a(csma-output.o) (csma_security_create_frame)
build/cooja/mtype248.a(uipbuf.o)
                              build/cooja/mtype248.a(tcpip.o) (uipbuf_clear)
build/cooja/mtype248.a(uip-icmp6.o)
                              build/cooja/mtype248.a(uip6.o) (uip_icmp6_input)
build/cooja/mtype248.a(uip-packetqueue)
                              build/cooja/mtype248.a(uip-ds6-nbr.o) (uip_packetqueue_new)
build/cooja/mtype248.a(rpl-nbr-policy.)
                              build/cooja/mtype248.a(nbr-table.o) (rpl_nbr_gc_get_worst)
build/cooja/mtype248.a(rpl-neighbor.o)
                              build/cooja/mtype248.a(rpl-icmp6.o) (rpl_neighbor_get_ipaddr)
build/cooja/mtype248.a(rpl-dag.o)
                              build/cooja/mtype248.a(rpl.o) (curr_instance)
build/cooja/mtype248.a(rpl-timers.o)
                              build/cooja/mtype248.a(rpl-dag.o) (rpl_timers_schedule_periodic_dis)
build/cooja/mtype248.a(rpl-ext-header.)
                              build/cooja/mtype248.a(rpl.o) (rpl_ext_header_srh_get_next_hop)
build/cooja/mtype248.a(rpl-mrhof.o)
                              build/cooja/mtype248.a(rpl-dag.o) (rpl_mrhof)
build/cooja/mtype248.a(border-router-e)
                              build/cooja/mtype248.a(rpl-border-rout) (border_router_process)
/usr/lib/i386-linux-gnu/libc_nonshared.a(stack_chk_fail_local.oS)
                              build/cooja/mtype248.o (__stack_chk_fail_local)

As-needed library included to satisfy reference by file (symbol)

libc.so.6                     build/cooja/mtype248.a(random.o) (srand@@GLIBC_2.0)

Allocating common symbols
Common symbol       size              file

simButtonIsDown     0x1               build/cooja/mtype248.a(buttons.o)
simOutDataBuffer    0x7d              build/cooja/mtype248.a(cooja-radio.o)
uip_ds6_prefix_list
                    0x60              build/cooja/mtype248.a(uip-ds6.o)
linkaddr_node_addr  0x8               build/cooja/mtype248.a(linkaddr.o)
simSerialReceivingFlag
                    0x1               build/cooja/mtype248.a(rs232.o)
simEEPROMData       0x400             build/cooja/mtype248.a(eeprom.o)
periodic_timer      0x20              build/cooja/mtype248.a(link-stats.o)
simLoggedLength     0x4               build/cooja/mtype248.a(cooja-log.o)
simSerialReceivingLength
                    0x4               build/cooja/mtype248.a(rs232.o)
simEtimerPending    0x4               build/cooja/mtype248.a(simEnvChange.o)
uip_slen            0x2               build/cooja/mtype248.a(uip6.o)
uip_ds6_timer_periodic
                    0x10              build/cooja/mtype248.a(uip-ds6.o)
uip_acc32           0x4               build/cooja/mtype248.a(uip6.o)
uip_conns           0x180             build/cooja/mtype248.a(uip6.o)
simVibChanged       0x1               build/cooja/mtype248.a(vib-sensor.o)
simRtimerPending    0x4               build/cooja/mtype248.a(rtimer-arch.o)
button_hal_periodic_event
                    0x1               build/cooja/mtype248.a(button-hal.o)
uip_ds6_netif_addr_list_offset
                    0x1               build/cooja/mtype248.a(uip-ds6.o)
uip_lladdr          0x8               build/cooja/mtype248.a(uip6.o)
button_hal_press_event
                    0x1               build/cooja/mtype248.a(button-hal.o)
simProcessRunValue  0x4               build/cooja/mtype248.a(simEnvChange.o)
serial_line_event_message
                    0x1               build/cooja/mtype248.a(serial-line.o)
uip_appdata         0x4               build/cooja/mtype248.a(uip6.o)
prefix_set          0x1               build/cooja/mtype248.a(rpl-border-rout)
referenceVar        0x4               build/cooja/mtype248.o
simCurrentTime      0x4               build/cooja/mtype248.a(clock.o)
simVibIsActive      0x1               build/cooja/mtype248.a(vib-sensor.o)
uip_ds6_if          0x11c             build/cooja/mtype248.a(uip-ds6.o)
uip_flags           0x1               build/cooja/mtype248.a(uip6.o)
uip_ds6_timer_ra    0x8               build/cooja/mtype248.a(uip-ds6.o)
simSerialReceivingData
                    0x800             build/cooja/mtype248.a(rs232.o)
simLoggedFlag       0x1               build/cooja/mtype248.a(cooja-log.o)
packetbuf_attrs     0x1a              build/cooja/mtype248.a(packetbuf.o)
uip_ds6_addr_size   0x1               build/cooja/mtype248.a(uip-ds6.o)
uip_aligned_buf     0x500             build/cooja/mtype248.a(uip6.o)
simRtimerCurrentTicks
                    0x8               build/cooja/mtype248.a(rtimer-arch.o)
simRandomSeed       0x4               build/cooja/mtype248.a(moteid.o)
rpl_multicast_addr  0x10              build/cooja/mtype248.a(rpl.o)
simLoggedData       0x2000            build/cooja/mtype248.a(cooja-log.o)
simEtimerNextExpirationTime
                    0x4               build/cooja/mtype248.a(simEnvChange.o)
uip_listenports     0x28              build/cooja/mtype248.a(uip6.o)
uip_len             0x2               build/cooja/mtype248.a(uip6.o)
simButtonChanged    0x1               build/cooja/mtype248.a(buttons.o)
simRtimerNextExpirationTime
                    0x8               build/cooja/mtype248.a(rtimer-arch.o)
simPirIsActive      0x1               build/cooja/mtype248.a(pir-sensor.o)
simInDataBuffer     0x7d              build/cooja/mtype248.a(cooja-radio.o)
simPirChanged       0x1               build/cooja/mtype248.a(pir-sensor.o)
simBeeped           0x1               build/cooja/mtype248.a(beep.o)
tcpip_event         0x1               build/cooja/mtype248.a(tcpip.o)
uip_sappdata        0x4               build/cooja/mtype248.a(uip6.o)
sensors_event       0x1               build/cooja/mtype248.a(sensors.o)
uip_udp_conns       0x100             build/cooja/mtype248.a(uip6.o)
button_hal_release_event
                    0x1               build/cooja/mtype248.a(button-hal.o)
packetbuf_addrs     0x10              build/cooja/mtype248.a(packetbuf.o)
uip_udp_conn        0x4               build/cooja/mtype248.a(uip6.o)
simMoteIDChanged    0x1               build/cooja/mtype248.a(moteid.o)
sensors_flags       0x4               build/cooja/mtype248.o
curr_instance       0x164             build/cooja/mtype248.a(rpl-dag.o)
simMoteID           0x4               build/cooja/mtype248.a(moteid.o)
uip_conn            0x4               build/cooja/mtype248.a(uip6.o)
build/cooja/mtype248.a(uip-ds6.o): dynamic relocation against `uip_ds6_get_link_local' in read-only section `.text'

Discarded input sections

 .note.GNU-stack
                0x0000000000000000        0x0 /usr/lib/gcc/i686-linux-gnu/7/../../../i386-linux-gnu/crti.o
 .group         0x0000000000000000        0x8 /usr/lib/gcc/i686-linux-gnu/7/crtbeginS.o
 .group         0x0000000000000000        0x8 /usr/lib/gcc/i686-linux-gnu/7/crtbeginS.o
 .text.__x86.get_pc_thunk.bx
                0x0000000000000000        0x4 /usr/lib/gcc/i686-linux-gnu/7/crtbeginS.o
 .note.GNU-stack
                0x0000000000000000        0x0 /usr/lib/gcc/i686-linux-gnu/7/crtbeginS.o
 .group         0x0000000000000000        0x8 border-router.o
 .text.__x86.get_pc_thunk.bx
                0x0000000000000000        0x4 border-router.o
 .note.GNU-stack
                0x0000000000000000        0x0 border-router.o
 .group         0x0000000000000000        0x8 build/cooja/mtype248.o
 .group         0x0000000000000000        0x8 build/cooja/mtype248.o
 .group         0x0000000000000000        0x8 build/cooja/mtype248.o
 .text.__x86.get_pc_thunk.dx
                0x0000000000000000        0x4 build/cooja/mtype248.o
 .text.__x86.get_pc_thunk.bx
                0x0000000000000000        0x4 build/cooja/mtype248.o
 .note.GNU-stack
                0x0000000000000000        0x0 build/cooja/mtype248.o
 .group         0x0000000000000000        0x8 build/cooja/mtype248.a(simEnvChange.o)
 .text.__x86.get_pc_thunk.bx
                0x0000000000000000        0x4 build/cooja/mtype248.a(simEnvChange.o)
 .note.GNU-stack
                0x0000000000000000        0x0 build/cooja/mtype248.a(simEnvChange.o)
 .group         0x0000000000000000        0x8 build/cooja/mtype248.a(cooja_mt.o)
 .text.__x86.get_pc_thunk.ax
                0x0000000000000000        0x4 build/cooja/mtype248.a(cooja_mt.o)
 .note.GNU-stack
                0x0000000000000000        0x0 build/cooja/mtype248.a(cooja_mt.o)
 .group         0x0000000000000000        0x8 build/cooja/mtype248.a(cooja_mtarch.o)
 .group         0x0000000000000000        0x8 build/cooja/mtype248.a(cooja_mtarch.o)
 .text.__x86.get_pc_thunk.ax
                0x0000000000000000        0x4 build/cooja/mtype248.a(cooja_mtarch.o)
 .text.__x86.get_pc_thunk.bx
                0x0000000000000000        0x4 build/cooja/mtype248.a(cooja_mtarch.o)
 .note.GNU-stack
                0x0000000000000000        0x0 build/cooja/mtype248.a(cooja_mtarch.o)
 .group         0x0000000000000000        0x8 build/cooja/mtype248.a(rtimer-arch.o)
 .group         0x0000000000000000        0x8 build/cooja/mtype248.a(rtimer-arch.o)
 .text.__x86.get_pc_thunk.ax
                0x0000000000000000        0x4 build/cooja/mtype248.a(rtimer-arch.o)
 .note.GNU-stack
                0x0000000000000000        0x0 build/cooja/mtype248.a(rtimer-arch.o)
 .group         0x0000000000000000        0x8 build/cooja/mtype248.a(beep.o)
 .text.__x86.get_pc_thunk.ax
                0x0000000000000000        0x4 build/cooja/mtype248.a(beep.o)
 .note.GNU-stack
                0x0000000000000000        0x0 build/cooja/mtype248.a(beep.o)
 .group         0x0000000000000000        0x8 build/cooja/mtype248.a(leds-arch.o)
 .group         0x0000000000000000        0x8 build/cooja/mtype248.a(leds-arch.o)
 .text.__x86.get_pc_thunk.ax
                0x0000000000000000        0x4 build/cooja/mtype248.a(leds-arch.o)
 .text.__x86.get_pc_thunk.bx
                0x0000000000000000        0x4 build/cooja/mtype248.a(leds-arch.o)
 .note.GNU-stack
                0x0000000000000000        0x0 build/cooja/mtype248.a(leds-arch.o)
 .group         0x0000000000000000        0x8 build/cooja/mtype248.a(moteid.o)
 .text.__x86.get_pc_thunk.ax
                0x0000000000000000        0x4 build/cooja/mtype248.a(moteid.o)
 .note.GNU-stack
                0x0000000000000000        0x0 build/cooja/mtype248.a(moteid.o)
 .group         0x0000000000000000        0x8 build/cooja/mtype248.a(pir-sensor.o)
 .group         0x0000000000000000        0x8 build/cooja/mtype248.a(pir-sensor.o)
 .text.__x86.get_pc_thunk.ax
                0x0000000000000000        0x4 build/cooja/mtype248.a(pir-sensor.o)
 .text.__x86.get_pc_thunk.bx
                0x0000000000000000        0x4 build/cooja/mtype248.a(pir-sensor.o)
 .note.GNU-stack
                0x0000000000000000        0x0 build/cooja/mtype248.a(pir-sensor.o)
 .group         0x0000000000000000        0x8 build/cooja/mtype248.a(rs232.o)
 .group         0x0000000000000000        0x8 build/cooja/mtype248.a(rs232.o)
 .text.__x86.get_pc_thunk.ax
                0x0000000000000000        0x4 build/cooja/mtype248.a(rs232.o)
 .text.__x86.get_pc_thunk.bx
                0x0000000000000000        0x4 build/cooja/mtype248.a(rs232.o)
 .note.GNU-stack
                0x0000000000000000        0x0 build/cooja/mtype248.a(rs232.o)
 .group         0x0000000000000000        0x8 build/cooja/mtype248.a(vib-sensor.o)
 .group         0x0000000000000000        0x8 build/cooja/mtype248.a(vib-sensor.o)
 .text.__x86.get_pc_thunk.ax
                0x0000000000000000        0x4 build/cooja/mtype248.a(vib-sensor.o)
 .text.__x86.get_pc_thunk.bx
                0x0000000000000000        0x4 build/cooja/mtype248.a(vib-sensor.o)
 .note.GNU-stack
                0x0000000000000000        0x0 build/cooja/mtype248.a(vib-sensor.o)
 .group         0x0000000000000000        0x8 build/cooja/mtype248.a(clock.o)
 .text.__x86.get_pc_thunk.ax
                0x0000000000000000        0x4 build/cooja/mtype248.a(clock.o)
 .note.GNU-stack
                0x0000000000000000        0x0 build/cooja/mtype248.a(clock.o)
 .group         0x0000000000000000        0x8 build/cooja/mtype248.a(cooja-log.o)
 .group         0x0000000000000000        0x8 build/cooja/mtype248.a(cooja-log.o)
 .text.__x86.get_pc_thunk.ax
                0x0000000000000000        0x4 build/cooja/mtype248.a(cooja-log.o)
 .text.__x86.get_pc_thunk.bx
                0x0000000000000000        0x4 build/cooja/mtype248.a(cooja-log.o)
 .note.GNU-stack
                0x0000000000000000        0x0 build/cooja/mtype248.a(cooja-log.o)
 .group         0x0000000000000000        0x8 build/cooja/mtype248.a(cfs-cooja.o)
 .group         0x0000000000000000        0x8 build/cooja/mtype248.a(cfs-cooja.o)
 .text.__x86.get_pc_thunk.ax
                0x0000000000000000        0x4 build/cooja/mtype248.a(cfs-cooja.o)
 .text.__x86.get_pc_thunk.bx
                0x0000000000000000        0x4 build/cooja/mtype248.a(cfs-cooja.o)
 .note.GNU-stack
                0x0000000000000000        0x0 build/cooja/mtype248.a(cfs-cooja.o)
 .group         0x0000000000000000        0x8 build/cooja/mtype248.a(cooja-radio.o)
 .group         0x0000000000000000        0x8 build/cooja/mtype248.a(cooja-radio.o)
 .text.__x86.get_pc_thunk.ax
                0x0000000000000000        0x4 build/cooja/mtype248.a(cooja-radio.o)
 .text.__x86.get_pc_thunk.bx
                0x0000000000000000        0x4 build/cooja/mtype248.a(cooja-radio.o)
 .note.GNU-stack
                0x0000000000000000        0x0 build/cooja/mtype248.a(cooja-radio.o)
 .group         0x0000000000000000        0x8 build/cooja/mtype248.a(eeprom.o)
 .group         0x0000000000000000        0x8 build/cooja/mtype248.a(eeprom.o)
 .text.__x86.get_pc_thunk.ax
                0x0000000000000000        0x4 build/cooja/mtype248.a(eeprom.o)
 .text.__x86.get_pc_thunk.bx
                0x0000000000000000        0x4 build/cooja/mtype248.a(eeprom.o)
 .note.GNU-stack
                0x0000000000000000        0x0 build/cooja/mtype248.a(eeprom.o)
 .group         0x0000000000000000        0x8 build/cooja/mtype248.a(random.o)
 .text.__x86.get_pc_thunk.ax
                0x0000000000000000        0x4 build/cooja/mtype248.a(random.o)
 .note.GNU-stack
                0x0000000000000000        0x0 build/cooja/mtype248.a(random.o)
 .group         0x0000000000000000        0x8 build/cooja/mtype248.a(sensors.o)
 .group         0x0000000000000000        0x8 build/cooja/mtype248.a(sensors.o)
 .text.__x86.get_pc_thunk.ax
                0x0000000000000000        0x4 build/cooja/mtype248.a(sensors.o)
 .text.__x86.get_pc_thunk.bx
                0x0000000000000000        0x4 build/cooja/mtype248.a(sensors.o)
 .note.GNU-stack
                0x0000000000000000        0x0 build/cooja/mtype248.a(sensors.o)
 .group         0x0000000000000000        0x8 build/cooja/mtype248.a(leds.o)
 .group         0x0000000000000000        0x8 build/cooja/mtype248.a(leds.o)
 .text.__x86.get_pc_thunk.ax
                0x0000000000000000        0x4 build/cooja/mtype248.a(leds.o)
 .text.__x86.get_pc_thunk.bx
                0x0000000000000000        0x4 build/cooja/mtype248.a(leds.o)
 .note.GNU-stack
                0x0000000000000000        0x0 build/cooja/mtype248.a(leds.o)
 .group         0x0000000000000000        0x8 build/cooja/mtype248.a(gpio-hal-arch.o)
 .group         0x0000000000000000        0x8 build/cooja/mtype248.a(gpio-hal-arch.o)
 .group         0x0000000000000000        0x8 build/cooja/mtype248.a(gpio-hal-arch.o)
 .text.__x86.get_pc_thunk.ax
                0x0000000000000000        0x4 build/cooja/mtype248.a(gpio-hal-arch.o)
 .text.__x86.get_pc_thunk.dx
                0x0000000000000000        0x4 build/cooja/mtype248.a(gpio-hal-arch.o)
 .text.__x86.get_pc_thunk.bx
                0x0000000000000000        0x4 build/cooja/mtype248.a(gpio-hal-arch.o)
 .note.GNU-stack
                0x0000000000000000        0x0 build/cooja/mtype248.a(gpio-hal-arch.o)
 .group         0x0000000000000000        0x8 build/cooja/mtype248.a(buttons.o)
 .group         0x0000000000000000        0x8 build/cooja/mtype248.a(buttons.o)
 .text.__x86.get_pc_thunk.ax
                0x0000000000000000        0x4 build/cooja/mtype248.a(buttons.o)
 .text.__x86.get_pc_thunk.bx
                0x0000000000000000        0x4 build/cooja/mtype248.a(buttons.o)
 .note.GNU-stack
                0x0000000000000000        0x0 build/cooja/mtype248.a(buttons.o)
 .group         0x0000000000000000        0x8 build/cooja/mtype248.a(webserver.o)
 .group         0x0000000000000000        0x8 build/cooja/mtype248.a(webserver.o)
 .text.__x86.get_pc_thunk.ax
                0x0000000000000000        0x4 build/cooja/mtype248.a(webserver.o)
 .text.__x86.get_pc_thunk.bx
                0x0000000000000000        0x4 build/cooja/mtype248.a(webserver.o)
 .note.GNU-stack
                0x0000000000000000        0x0 build/cooja/mtype248.a(webserver.o)
 .group         0x0000000000000000        0x8 build/cooja/mtype248.a(contiki-main.o)
 .text.__x86.get_pc_thunk.bx
                0x0000000000000000        0x4 build/cooja/mtype248.a(contiki-main.o)
 .note.GNU-stack
                0x0000000000000000        0x0 build/cooja/mtype248.a(contiki-main.o)
 .group         0x0000000000000000        0x8 build/cooja/mtype248.a(autostart.o)
 .text.__x86.get_pc_thunk.bx
                0x0000000000000000        0x4 build/cooja/mtype248.a(autostart.o)
 .note.GNU-stack
                0x0000000000000000        0x0 build/cooja/mtype248.a(autostart.o)
 .group         0x0000000000000000        0x8 build/cooja/mtype248.a(ctimer.o)
 .group         0x0000000000000000        0x8 build/cooja/mtype248.a(ctimer.o)
 .text.__x86.get_pc_thunk.ax
                0x0000000000000000        0x4 build/cooja/mtype248.a(ctimer.o)
 .text.__x86.get_pc_thunk.bx
                0x0000000000000000        0x4 build/cooja/mtype248.a(ctimer.o)
 .note.GNU-stack
                0x0000000000000000        0x0 build/cooja/mtype248.a(ctimer.o)
 .group         0x0000000000000000        0x8 build/cooja/mtype248.a(log.o)
 .group         0x0000000000000000        0x8 build/cooja/mtype248.a(log.o)
 .text.__x86.get_pc_thunk.ax
                0x0000000000000000        0x4 build/cooja/mtype248.a(log.o)
 .text.__x86.get_pc_thunk.bx
                0x0000000000000000        0x4 build/cooja/mtype248.a(log.o)
 .note.GNU-stack
                0x0000000000000000        0x0 build/cooja/mtype248.a(log.o)
 .group         0x0000000000000000        0x8 build/cooja/mtype248.a(energest.o)
 .text.__x86.get_pc_thunk.ax
                0x0000000000000000        0x4 build/cooja/mtype248.a(energest.o)
 .note.GNU-stack
                0x0000000000000000        0x0 build/cooja/mtype248.a(energest.o)
 .group         0x0000000000000000        0x8 build/cooja/mtype248.a(etimer.o)
 .group         0x0000000000000000        0x8 build/cooja/mtype248.a(etimer.o)
 .text.__x86.get_pc_thunk.ax
                0x0000000000000000        0x4 build/cooja/mtype248.a(etimer.o)
 .text.__x86.get_pc_thunk.bx
                0x0000000000000000        0x4 build/cooja/mtype248.a(etimer.o)
 .note.GNU-stack
                0x0000000000000000        0x0 build/cooja/mtype248.a(etimer.o)
 .group         0x0000000000000000        0x8 build/cooja/mtype248.a(node-id.o)
 .text.__x86.get_pc_thunk.ax
                0x0000000000000000        0x4 build/cooja/mtype248.a(node-id.o)
 .note.GNU-stack
                0x0000000000000000        0x0 build/cooja/mtype248.a(node-id.o)
 .group         0x0000000000000000        0x8 build/cooja/mtype248.a(rtimer.o)
 .group         0x0000000000000000        0x8 build/cooja/mtype248.a(rtimer.o)
 .group         0x0000000000000000        0x8 build/cooja/mtype248.a(rtimer.o)
 .text.__x86.get_pc_thunk.ax
                0x0000000000000000        0x4 build/cooja/mtype248.a(rtimer.o)
 .text.__x86.get_pc_thunk.cx
                0x0000000000000000        0x4 build/cooja/mtype248.a(rtimer.o)
 .text.__x86.get_pc_thunk.bx
                0x0000000000000000        0x4 build/cooja/mtype248.a(rtimer.o)
 .note.GNU-stack
                0x0000000000000000        0x0 build/cooja/mtype248.a(rtimer.o)
 .group         0x0000000000000000        0x8 build/cooja/mtype248.a(process.o)
 .group         0x0000000000000000        0x8 build/cooja/mtype248.a(process.o)
 .group         0x0000000000000000        0x8 build/cooja/mtype248.a(process.o)
 .text.__x86.get_pc_thunk.ax
                0x0000000000000000        0x4 build/cooja/mtype248.a(process.o)
 .text.__x86.get_pc_thunk.bx
                0x0000000000000000        0x4 build/cooja/mtype248.a(process.o)
 .note.GNU-stack
                0x0000000000000000        0x0 build/cooja/mtype248.a(process.o)
 .group         0x0000000000000000        0x8 build/cooja/mtype248.a(timer.o)
 .text.__x86.get_pc_thunk.ax
                0x0000000000000000        0x4 build/cooja/mtype248.a(timer.o)
 .note.GNU-stack
                0x0000000000000000        0x0 build/cooja/mtype248.a(timer.o)
 .group         0x0000000000000000        0x8 build/cooja/mtype248.a(list.o)
 .text.__x86.get_pc_thunk.ax
                0x0000000000000000        0x4 build/cooja/mtype248.a(list.o)
 .note.GNU-stack
                0x0000000000000000        0x0 build/cooja/mtype248.a(list.o)
 .group         0x0000000000000000        0x8 build/cooja/mtype248.a(button-hal.o)
 .group         0x0000000000000000        0x8 build/cooja/mtype248.a(button-hal.o)
 .text.__x86.get_pc_thunk.ax
                0x0000000000000000        0x4 build/cooja/mtype248.a(button-hal.o)
 .text.__x86.get_pc_thunk.bx
                0x0000000000000000        0x4 build/cooja/mtype248.a(button-hal.o)
 .note.GNU-stack
                0x0000000000000000        0x0 build/cooja/mtype248.a(button-hal.o)
 .group         0x0000000000000000        0x8 build/cooja/mtype248.a(serial-line.o)
 .text.__x86.get_pc_thunk.bx
                0x0000000000000000        0x4 build/cooja/mtype248.a(serial-line.o)
 .note.GNU-stack
                0x0000000000000000        0x0 build/cooja/mtype248.a(serial-line.o)
 .group         0x0000000000000000        0x8 build/cooja/mtype248.a(gpio-hal.o)
 .group         0x0000000000000000        0x8 build/cooja/mtype248.a(gpio-hal.o)
 .text.__x86.get_pc_thunk.ax
                0x0000000000000000        0x4 build/cooja/mtype248.a(gpio-hal.o)
 .text.__x86.get_pc_thunk.bx
                0x0000000000000000        0x4 build/cooja/mtype248.a(gpio-hal.o)
 .note.GNU-stack
                0x0000000000000000        0x0 build/cooja/mtype248.a(gpio-hal.o)
 .group         0x0000000000000000        0x8 build/cooja/mtype248.a(queuebuf.o)
 .group         0x0000000000000000        0x8 build/cooja/mtype248.a(queuebuf.o)
 .text.__x86.get_pc_thunk.ax
                0x0000000000000000        0x4 build/cooja/mtype248.a(queuebuf.o)
 .text.__x86.get_pc_thunk.bx
                0x0000000000000000        0x4 build/cooja/mtype248.a(queuebuf.o)
 .note.GNU-stack
                0x0000000000000000        0x0 build/cooja/mtype248.a(queuebuf.o)
 .group         0x0000000000000000        0x8 build/cooja/mtype248.a(packetbuf.o)
 .group         0x0000000000000000        0x8 build/cooja/mtype248.a(packetbuf.o)
 .text.__x86.get_pc_thunk.ax
                0x0000000000000000        0x4 build/cooja/mtype248.a(packetbuf.o)
 .text.__x86.get_pc_thunk.bx
                0x0000000000000000        0x4 build/cooja/mtype248.a(packetbuf.o)
 .note.GNU-stack
                0x0000000000000000        0x0 build/cooja/mtype248.a(packetbuf.o)
 .group         0x0000000000000000        0x8 build/cooja/mtype248.a(netstack.o)
 .group         0x0000000000000000        0x8 build/cooja/mtype248.a(netstack.o)
 .text.__x86.get_pc_thunk.ax
                0x0000000000000000        0x4 build/cooja/mtype248.a(netstack.o)
 .text.__x86.get_pc_thunk.bx
                0x0000000000000000        0x4 build/cooja/mtype248.a(netstack.o)
 .note.GNU-stack
                0x0000000000000000        0x0 build/cooja/mtype248.a(netstack.o)
 .group         0x0000000000000000        0x8 build/cooja/mtype248.a(linkaddr.o)
 .text.__x86.get_pc_thunk.ax
                0x0000000000000000        0x4 build/cooja/mtype248.a(linkaddr.o)
 .note.GNU-stack
                0x0000000000000000        0x0 build/cooja/mtype248.a(linkaddr.o)
 .group         0x0000000000000000        0x8 build/cooja/mtype248.a(csma.o)
 .group         0x0000000000000000        0x8 build/cooja/mtype248.a(csma.o)
 .text.__x86.get_pc_thunk.ax
                0x0000000000000000        0x4 build/cooja/mtype248.a(csma.o)
 .text.__x86.get_pc_thunk.bx
                0x0000000000000000        0x4 build/cooja/mtype248.a(csma.o)
 .note.GNU-stack
                0x0000000000000000        0x0 build/cooja/mtype248.a(csma.o)
 .group         0x0000000000000000        0x8 build/cooja/mtype248.a(csma-output.o)
 .group         0x0000000000000000        0x8 build/cooja/mtype248.a(csma-output.o)
 .text.__x86.get_pc_thunk.ax
                0x0000000000000000        0x4 build/cooja/mtype248.a(csma-output.o)
 .text.__x86.get_pc_thunk.bx
                0x0000000000000000        0x4 build/cooja/mtype248.a(csma-output.o)
 .note.GNU-stack
                0x0000000000000000        0x0 build/cooja/mtype248.a(csma-output.o)
 .group         0x0000000000000000        0x8 build/cooja/mtype248.a(uip-sr.o)
 .group         0x0000000000000000        0x8 build/cooja/mtype248.a(uip-sr.o)
 .text.__x86.get_pc_thunk.ax
                0x0000000000000000        0x4 build/cooja/mtype248.a(uip-sr.o)
 .text.__x86.get_pc_thunk.bx
                0x0000000000000000        0x4 build/cooja/mtype248.a(uip-sr.o)
 .note.GNU-stack
                0x0000000000000000        0x0 build/cooja/mtype248.a(uip-sr.o)
 .group         0x0000000000000000        0x8 build/cooja/mtype248.a(uip-ds6.o)
 .group         0x0000000000000000        0x8 build/cooja/mtype248.a(uip-ds6.o)
 .text.__x86.get_pc_thunk.ax
                0x0000000000000000        0x4 build/cooja/mtype248.a(uip-ds6.o)
 .text.__x86.get_pc_thunk.bx
                0x0000000000000000        0x4 build/cooja/mtype248.a(uip-ds6.o)
 .note.GNU-stack
                0x0000000000000000        0x0 build/cooja/mtype248.a(uip-ds6.o)
 .group         0x0000000000000000        0x8 build/cooja/mtype248.a(uip-ds6-route.o)
 .group         0x0000000000000000        0x8 build/cooja/mtype248.a(uip-ds6-route.o)
 .text.__x86.get_pc_thunk.ax
                0x0000000000000000        0x4 build/cooja/mtype248.a(uip-ds6-route.o)
 .text.__x86.get_pc_thunk.bx
                0x0000000000000000        0x4 build/cooja/mtype248.a(uip-ds6-route.o)
 .note.GNU-stack
                0x0000000000000000        0x0 build/cooja/mtype248.a(uip-ds6-route.o)
 .group         0x0000000000000000        0x8 build/cooja/mtype248.a(psock.o)
 .group         0x0000000000000000        0x8 build/cooja/mtype248.a(psock.o)
 .group         0x0000000000000000        0x8 build/cooja/mtype248.a(psock.o)
 .text.__x86.get_pc_thunk.ax
                0x0000000000000000        0x4 build/cooja/mtype248.a(psock.o)
 .text.__x86.get_pc_thunk.bx
                0x0000000000000000        0x4 build/cooja/mtype248.a(psock.o)
 .text.__x86.get_pc_thunk.si
                0x0000000000000000        0x4 build/cooja/mtype248.a(psock.o)
 .note.GNU-stack
                0x0000000000000000        0x0 build/cooja/mtype248.a(psock.o)
 .group         0x0000000000000000        0x8 build/cooja/mtype248.a(tcpip.o)
 .group         0x0000000000000000        0x8 build/cooja/mtype248.a(tcpip.o)
 .text.__x86.get_pc_thunk.ax
                0x0000000000000000        0x4 build/cooja/mtype248.a(tcpip.o)
 .text.__x86.get_pc_thunk.bx
                0x0000000000000000        0x4 build/cooja/mtype248.a(tcpip.o)
 .note.GNU-stack
                0x0000000000000000        0x0 build/cooja/mtype248.a(tcpip.o)
 .group         0x0000000000000000        0x8 build/cooja/mtype248.a(uip6.o)
 .group         0x0000000000000000        0x8 build/cooja/mtype248.a(uip6.o)
 .group         0x0000000000000000        0x8 build/cooja/mtype248.a(uip6.o)
 .text.__x86.get_pc_thunk.ax
                0x0000000000000000        0x4 build/cooja/mtype248.a(uip6.o)
 .text.__x86.get_pc_thunk.bx
                0x0000000000000000        0x4 build/cooja/mtype248.a(uip6.o)
 .text.__x86.get_pc_thunk.si
                0x0000000000000000        0x4 build/cooja/mtype248.a(uip6.o)
 .note.GNU-stack
                0x0000000000000000        0x0 build/cooja/mtype248.a(uip6.o)
 .group         0x0000000000000000        0x8 build/cooja/mtype248.a(uip-ds6-nbr.o)
 .group         0x0000000000000000        0x8 build/cooja/mtype248.a(uip-ds6-nbr.o)
 .text.__x86.get_pc_thunk.ax
                0x0000000000000000        0x4 build/cooja/mtype248.a(uip-ds6-nbr.o)
 .text.__x86.get_pc_thunk.bx
                0x0000000000000000        0x4 build/cooja/mtype248.a(uip-ds6-nbr.o)
 .note.GNU-stack
                0x0000000000000000        0x0 build/cooja/mtype248.a(uip-ds6-nbr.o)
 .group         0x0000000000000000        0x8 build/cooja/mtype248.a(uip-nd6.o)
 .group         0x0000000000000000        0x8 build/cooja/mtype248.a(uip-nd6.o)
 .group         0x0000000000000000        0x8 build/cooja/mtype248.a(uip-nd6.o)
 .text.__x86.get_pc_thunk.ax
                0x0000000000000000        0x4 build/cooja/mtype248.a(uip-nd6.o)
 .text.__x86.get_pc_thunk.cx
                0x0000000000000000        0x4 build/cooja/mtype248.a(uip-nd6.o)
 .text.__x86.get_pc_thunk.bx
                0x0000000000000000        0x4 build/cooja/mtype248.a(uip-nd6.o)
 .note.GNU-stack
                0x0000000000000000        0x0 build/cooja/mtype248.a(uip-nd6.o)
 .group         0x0000000000000000        0x8 build/cooja/mtype248.a(sicslowpan.o)
 .group         0x0000000000000000        0x8 build/cooja/mtype248.a(sicslowpan.o)
 .group         0x0000000000000000        0x8 build/cooja/mtype248.a(sicslowpan.o)
 .text.__x86.get_pc_thunk.ax
                0x0000000000000000        0x4 build/cooja/mtype248.a(sicslowpan.o)
 .text.__x86.get_pc_thunk.dx
                0x0000000000000000        0x4 build/cooja/mtype248.a(sicslowpan.o)
 .text.__x86.get_pc_thunk.bx
                0x0000000000000000        0x4 build/cooja/mtype248.a(sicslowpan.o)
 .note.GNU-stack
                0x0000000000000000        0x0 build/cooja/mtype248.a(sicslowpan.o)
 .group         0x0000000000000000        0x8 build/cooja/mtype248.a(uiplib.o)
 .group         0x0000000000000000        0x8 build/cooja/mtype248.a(uiplib.o)
 .text.__x86.get_pc_thunk.ax
                0x0000000000000000        0x4 build/cooja/mtype248.a(uiplib.o)
 .text.__x86.get_pc_thunk.bx
                0x0000000000000000        0x4 build/cooja/mtype248.a(uiplib.o)
 .note.GNU-stack
                0x0000000000000000        0x0 build/cooja/mtype248.a(uiplib.o)
 .group         0x0000000000000000        0x8 build/cooja/mtype248.a(rpl.o)
 .group         0x0000000000000000        0x8 build/cooja/mtype248.a(rpl.o)
 .text.__x86.get_pc_thunk.ax
                0x0000000000000000        0x4 build/cooja/mtype248.a(rpl.o)
 .text.__x86.get_pc_thunk.bx
                0x0000000000000000        0x4 build/cooja/mtype248.a(rpl.o)
 .note.GNU-stack
                0x0000000000000000        0x0 build/cooja/mtype248.a(rpl.o)
 .group         0x0000000000000000        0x8 build/cooja/mtype248.a(rpl-icmp6.o)
 .group         0x0000000000000000        0x8 build/cooja/mtype248.a(rpl-icmp6.o)
 .text.__x86.get_pc_thunk.ax
                0x0000000000000000        0x4 build/cooja/mtype248.a(rpl-icmp6.o)
 .text.__x86.get_pc_thunk.bx
                0x0000000000000000        0x4 build/cooja/mtype248.a(rpl-icmp6.o)
 .note.GNU-stack
                0x0000000000000000        0x0 build/cooja/mtype248.a(rpl-icmp6.o)
 .group         0x0000000000000000        0x8 build/cooja/mtype248.a(rpl-dag-root.o)
 .group         0x0000000000000000        0x8 build/cooja/mtype248.a(rpl-dag-root.o)
 .text.__x86.get_pc_thunk.ax
                0x0000000000000000        0x4 build/cooja/mtype248.a(rpl-dag-root.o)
 .text.__x86.get_pc_thunk.bx
                0x0000000000000000        0x4 build/cooja/mtype248.a(rpl-dag-root.o)
 .note.GNU-stack
                0x0000000000000000        0x0 build/cooja/mtype248.a(rpl-dag-root.o)
 .group         0x0000000000000000        0x8 build/cooja/mtype248.a(slip-bridge.o)
 .text.__x86.get_pc_thunk.bx
                0x0000000000000000        0x4 build/cooja/mtype248.a(slip-bridge.o)
 .note.GNU-stack
                0x0000000000000000        0x0 build/cooja/mtype248.a(slip-bridge.o)
 .group         0x0000000000000000        0x8 build/cooja/mtype248.a(slip.o)
 .group         0x0000000000000000        0x8 build/cooja/mtype248.a(slip.o)
 .text.__x86.get_pc_thunk.ax
                0x0000000000000000        0x4 build/cooja/mtype248.a(slip.o)
 .text.__x86.get_pc_thunk.bx
                0x0000000000000000        0x4 build/cooja/mtype248.a(slip.o)
 .note.GNU-stack
                0x0000000000000000        0x0 build/cooja/mtype248.a(slip.o)
 .group         0x0000000000000000        0x8 build/cooja/mtype248.a(watchdog.o)
 .text.__x86.get_pc_thunk.ax
                0x0000000000000000        0x4 build/cooja/mtype248.a(watchdog.o)
 .note.GNU-stack
                0x0000000000000000        0x0 build/cooja/mtype248.a(watchdog.o)
 .group         0x0000000000000000        0x8 build/cooja/mtype248.a(int-master.o)
 .text.__x86.get_pc_thunk.ax
                0x0000000000000000        0x4 build/cooja/mtype248.a(int-master.o)
 .note.GNU-stack
                0x0000000000000000        0x0 build/cooja/mtype248.a(int-master.o)
 .group         0x0000000000000000        0x8 build/cooja/mtype248.a(slip-arch.o)
 .text.__x86.get_pc_thunk.ax
                0x0000000000000000        0x4 build/cooja/mtype248.a(slip-arch.o)
 .note.GNU-stack
                0x0000000000000000        0x0 build/cooja/mtype248.a(slip-arch.o)
 .group         0x0000000000000000        0x8 build/cooja/mtype248.a(httpd-simple.o)
 .group         0x0000000000000000        0x8 build/cooja/mtype248.a(httpd-simple.o)
 .text.__x86.get_pc_thunk.ax
                0x0000000000000000        0x4 build/cooja/mtype248.a(httpd-simple.o)
 .text.__x86.get_pc_thunk.bx
                0x0000000000000000        0x4 build/cooja/mtype248.a(httpd-simple.o)
 .note.GNU-stack
                0x0000000000000000        0x0 build/cooja/mtype248.a(httpd-simple.o)
 .group         0x0000000000000000        0x8 build/cooja/mtype248.a(rpl-border-rout)
 .group         0x0000000000000000        0x8 build/cooja/mtype248.a(rpl-border-rout)
 .text.__x86.get_pc_thunk.ax
                0x0000000000000000        0x4 build/cooja/mtype248.a(rpl-border-rout)
 .text.__x86.get_pc_thunk.bx
                0x0000000000000000        0x4 build/cooja/mtype248.a(rpl-border-rout)
 .note.GNU-stack
                0x0000000000000000        0x0 build/cooja/mtype248.a(rpl-border-rout)
 .group         0x0000000000000000        0x8 build/cooja/mtype248.a(stimer.o)
 .text.__x86.get_pc_thunk.ax
                0x0000000000000000        0x4 build/cooja/mtype248.a(stimer.o)
 .note.GNU-stack
                0x0000000000000000        0x0 build/cooja/mtype248.a(stimer.o)
 .group         0x0000000000000000        0x8 build/cooja/mtype248.a(ringbuf.o)
 .text.__x86.get_pc_thunk.ax
                0x0000000000000000        0x4 build/cooja/mtype248.a(ringbuf.o)
 .note.GNU-stack
                0x0000000000000000        0x0 build/cooja/mtype248.a(ringbuf.o)
 .group         0x0000000000000000        0x8 build/cooja/mtype248.a(memb.o)
 .group         0x0000000000000000        0x8 build/cooja/mtype248.a(memb.o)
 .text.__x86.get_pc_thunk.ax
                0x0000000000000000        0x4 build/cooja/mtype248.a(memb.o)
 .text.__x86.get_pc_thunk.bx
                0x0000000000000000        0x4 build/cooja/mtype248.a(memb.o)
 .note.GNU-stack
                0x0000000000000000        0x0 build/cooja/mtype248.a(memb.o)
 .group         0x0000000000000000        0x8 build/cooja/mtype248.a(assert.o)
 .text.__x86.get_pc_thunk.ax
                0x0000000000000000        0x4 build/cooja/mtype248.a(assert.o)
 .note.GNU-stack
                0x0000000000000000        0x0 build/cooja/mtype248.a(assert.o)
 .group         0x0000000000000000        0x8 build/cooja/mtype248.a(nbr-table.o)
 .group         0x0000000000000000        0x8 build/cooja/mtype248.a(nbr-table.o)
 .text.__x86.get_pc_thunk.ax
                0x0000000000000000        0x4 build/cooja/mtype248.a(nbr-table.o)
 .text.__x86.get_pc_thunk.bx
                0x0000000000000000        0x4 build/cooja/mtype248.a(nbr-table.o)
 .note.GNU-stack
                0x0000000000000000        0x0 build/cooja/mtype248.a(nbr-table.o)
 .group         0x0000000000000000        0x8 build/cooja/mtype248.a(link-stats.o)
 .group         0x0000000000000000        0x8 build/cooja/mtype248.a(link-stats.o)
 .text.__x86.get_pc_thunk.ax
                0x0000000000000000        0x4 build/cooja/mtype248.a(link-stats.o)
 .text.__x86.get_pc_thunk.bx
                0x0000000000000000        0x4 build/cooja/mtype248.a(link-stats.o)
 .note.GNU-stack
                0x0000000000000000        0x0 build/cooja/mtype248.a(link-stats.o)
 .group         0x0000000000000000        0x8 build/cooja/mtype248.a(mac-sequence.o)
 .text.__x86.get_pc_thunk.bx
                0x0000000000000000        0x4 build/cooja/mtype248.a(mac-sequence.o)
 .note.GNU-stack
                0x0000000000000000        0x0 build/cooja/mtype248.a(mac-sequence.o)
 .group         0x0000000000000000        0x8 build/cooja/mtype248.a(mac.o)
 .text.__x86.get_pc_thunk.ax
                0x0000000000000000        0x4 build/cooja/mtype248.a(mac.o)
 .note.GNU-stack
                0x0000000000000000        0x0 build/cooja/mtype248.a(mac.o)
 .group         0x0000000000000000        0x8 build/cooja/mtype248.a(framer-802154.o)
 .group         0x0000000000000000        0x8 build/cooja/mtype248.a(framer-802154.o)
 .text.__x86.get_pc_thunk.ax
                0x0000000000000000        0x4 build/cooja/mtype248.a(framer-802154.o)
 .text.__x86.get_pc_thunk.bx
                0x0000000000000000        0x4 build/cooja/mtype248.a(framer-802154.o)
 .note.GNU-stack
                0x0000000000000000        0x0 build/cooja/mtype248.a(framer-802154.o)
 .group         0x0000000000000000        0x8 build/cooja/mtype248.a(frame802154.o)
 .group         0x0000000000000000        0x8 build/cooja/mtype248.a(frame802154.o)
 .text.__x86.get_pc_thunk.ax
                0x0000000000000000        0x4 build/cooja/mtype248.a(frame802154.o)
 .text.__x86.get_pc_thunk.bx
                0x0000000000000000        0x4 build/cooja/mtype248.a(frame802154.o)
 .note.GNU-stack
                0x0000000000000000        0x0 build/cooja/mtype248.a(frame802154.o)
 .group         0x0000000000000000        0x8 build/cooja/mtype248.a(csma-security.o)
 .group         0x0000000000000000        0x8 build/cooja/mtype248.a(csma-security.o)
 .text.__x86.get_pc_thunk.ax
                0x0000000000000000        0x4 build/cooja/mtype248.a(csma-security.o)
 .text.__x86.get_pc_thunk.bx
                0x0000000000000000        0x4 build/cooja/mtype248.a(csma-security.o)
 .note.GNU-stack
                0x0000000000000000        0x0 build/cooja/mtype248.a(csma-security.o)
 .group         0x0000000000000000        0x8 build/cooja/mtype248.a(uipbuf.o)
 .text.__x86.get_pc_thunk.ax
                0x0000000000000000        0x4 build/cooja/mtype248.a(uipbuf.o)
 .note.GNU-stack
                0x0000000000000000        0x0 build/cooja/mtype248.a(uipbuf.o)
 .group         0x0000000000000000        0x8 build/cooja/mtype248.a(uip-icmp6.o)
 .group         0x0000000000000000        0x8 build/cooja/mtype248.a(uip-icmp6.o)
 .text.__x86.get_pc_thunk.ax
                0x0000000000000000        0x4 build/cooja/mtype248.a(uip-icmp6.o)
 .text.__x86.get_pc_thunk.bx
                0x0000000000000000        0x4 build/cooja/mtype248.a(uip-icmp6.o)
 .note.GNU-stack
                0x0000000000000000        0x0 build/cooja/mtype248.a(uip-icmp6.o)
 .group         0x0000000000000000        0x8 build/cooja/mtype248.a(uip-packetqueue)
 .group         0x0000000000000000        0x8 build/cooja/mtype248.a(uip-packetqueue)
 .text.__x86.get_pc_thunk.ax
                0x0000000000000000        0x4 build/cooja/mtype248.a(uip-packetqueue)
 .text.__x86.get_pc_thunk.bx
                0x0000000000000000        0x4 build/cooja/mtype248.a(uip-packetqueue)
 .note.GNU-stack
                0x0000000000000000        0x0 build/cooja/mtype248.a(uip-packetqueue)
 .group         0x0000000000000000        0x8 build/cooja/mtype248.a(rpl-nbr-policy.)
 .group         0x0000000000000000        0x8 build/cooja/mtype248.a(rpl-nbr-policy.)
 .text.__x86.get_pc_thunk.ax
                0x0000000000000000        0x4 build/cooja/mtype248.a(rpl-nbr-policy.)
 .text.__x86.get_pc_thunk.bx
                0x0000000000000000        0x4 build/cooja/mtype248.a(rpl-nbr-policy.)
 .note.GNU-stack
                0x0000000000000000        0x0 build/cooja/mtype248.a(rpl-nbr-policy.)
 .group         0x0000000000000000        0x8 build/cooja/mtype248.a(rpl-neighbor.o)
 .group         0x0000000000000000        0x8 build/cooja/mtype248.a(rpl-neighbor.o)
 .group         0x0000000000000000        0x8 build/cooja/mtype248.a(rpl-neighbor.o)
 .text.__x86.get_pc_thunk.ax
                0x0000000000000000        0x4 build/cooja/mtype248.a(rpl-neighbor.o)
 .text.__x86.get_pc_thunk.bx
                0x0000000000000000        0x4 build/cooja/mtype248.a(rpl-neighbor.o)
 .text.__x86.get_pc_thunk.si
                0x0000000000000000        0x4 build/cooja/mtype248.a(rpl-neighbor.o)
 .note.GNU-stack
                0x0000000000000000        0x0 build/cooja/mtype248.a(rpl-neighbor.o)
 .group         0x0000000000000000        0x8 build/cooja/mtype248.a(rpl-dag.o)
 .group         0x0000000000000000        0x8 build/cooja/mtype248.a(rpl-dag.o)
 .group         0x0000000000000000        0x8 build/cooja/mtype248.a(rpl-dag.o)
 .text.__x86.get_pc_thunk.ax
                0x0000000000000000        0x4 build/cooja/mtype248.a(rpl-dag.o)
 .text.__x86.get_pc_thunk.dx
                0x0000000000000000        0x4 build/cooja/mtype248.a(rpl-dag.o)
 .text.__x86.get_pc_thunk.bx
                0x0000000000000000        0x4 build/cooja/mtype248.a(rpl-dag.o)
 .note.GNU-stack
                0x0000000000000000        0x0 build/cooja/mtype248.a(rpl-dag.o)
 .group         0x0000000000000000        0x8 build/cooja/mtype248.a(rpl-timers.o)
 .group         0x0000000000000000        0x8 build/cooja/mtype248.a(rpl-timers.o)
 .text.__x86.get_pc_thunk.ax
                0x0000000000000000        0x4 build/cooja/mtype248.a(rpl-timers.o)
 .text.__x86.get_pc_thunk.bx
                0x0000000000000000        0x4 build/cooja/mtype248.a(rpl-timers.o)
 .note.GNU-stack
                0x0000000000000000        0x0 build/cooja/mtype248.a(rpl-timers.o)
 .group         0x0000000000000000        0x8 build/cooja/mtype248.a(rpl-ext-header.)
 .group         0x0000000000000000        0x8 build/cooja/mtype248.a(rpl-ext-header.)
 .text.__x86.get_pc_thunk.ax
                0x0000000000000000        0x4 build/cooja/mtype248.a(rpl-ext-header.)
 .text.__x86.get_pc_thunk.bx
                0x0000000000000000        0x4 build/cooja/mtype248.a(rpl-ext-header.)
 .note.GNU-stack
                0x0000000000000000        0x0 build/cooja/mtype248.a(rpl-ext-header.)
 .group         0x0000000000000000        0x8 build/cooja/mtype248.a(rpl-mrhof.o)
 .group         0x0000000000000000        0x8 build/cooja/mtype248.a(rpl-mrhof.o)
 .text.__x86.get_pc_thunk.ax
                0x0000000000000000        0x4 build/cooja/mtype248.a(rpl-mrhof.o)
 .text.__x86.get_pc_thunk.bx
                0x0000000000000000        0x4 build/cooja/mtype248.a(rpl-mrhof.o)
 .note.GNU-stack
                0x0000000000000000        0x0 build/cooja/mtype248.a(rpl-mrhof.o)
 .group         0x0000000000000000        0x8 build/cooja/mtype248.a(border-router-e)
 .text.__x86.get_pc_thunk.bx
                0x0000000000000000        0x4 build/cooja/mtype248.a(border-router-e)
 .note.GNU-stack
                0x0000000000000000        0x0 build/cooja/mtype248.a(border-router-e)
 .group         0x0000000000000000        0x8 /usr/lib/i386-linux-gnu/libc_nonshared.a(stack_chk_fail_local.oS)
 .text.__x86.get_pc_thunk.bx
                0x0000000000000000        0x4 /usr/lib/i386-linux-gnu/libc_nonshared.a(stack_chk_fail_local.oS)
 .note.GNU-stack
                0x0000000000000000        0x0 /usr/lib/i386-linux-gnu/libc_nonshared.a(stack_chk_fail_local.oS)
 .note.GNU-stack
                0x0000000000000000        0x0 /usr/lib/gcc/i686-linux-gnu/7/crtendS.o
 .note.GNU-stack
                0x0000000000000000        0x0 /usr/lib/gcc/i686-linux-gnu/7/../../../i386-linux-gnu/crtn.o

Memory Configuration

Name             Origin             Length             Attributes
*default*        0x0000000000000000 0xffffffffffffffff

Linker script and memory map

LOAD /usr/lib/gcc/i686-linux-gnu/7/../../../i386-linux-gnu/crti.o
LOAD /usr/lib/gcc/i686-linux-gnu/7/crtbeginS.o
LOAD border-router.o
LOAD build/cooja/mtype248.o
LOAD build/cooja/mtype248.a
LOAD /usr/lib/gcc/i686-linux-gnu/7/libgcc.a
LOAD /usr/lib/gcc/i686-linux-gnu/7/libgcc_s.so
START GROUP
LOAD /usr/lib/gcc/i686-linux-gnu/7/libgcc_s.so.1
LOAD /usr/lib/gcc/i686-linux-gnu/7/libgcc.a
END GROUP
LOAD /usr/lib/gcc/i686-linux-gnu/7/../../../i386-linux-gnu/libc.so
START GROUP
LOAD /lib/i386-linux-gnu/libc.so.6
LOAD /usr/lib/i386-linux-gnu/libc_nonshared.a
LOAD /lib/i386-linux-gnu/ld-linux.so.2
END GROUP
LOAD /usr/lib/gcc/i686-linux-gnu/7/libgcc.a
LOAD /usr/lib/gcc/i686-linux-gnu/7/libgcc_s.so
START GROUP
LOAD /usr/lib/gcc/i686-linux-gnu/7/libgcc_s.so.1
LOAD /usr/lib/gcc/i686-linux-gnu/7/libgcc.a
END GROUP
LOAD /usr/lib/gcc/i686-linux-gnu/7/crtendS.o
LOAD /usr/lib/gcc/i686-linux-gnu/7/../../../i386-linux-gnu/crtn.o
                0x0000000000000114                . = (SEGMENT_START ("text-segment", 0x0) + SIZEOF_HEADERS)

.note.gnu.build-id
                0x0000000000000114       0x24
 *(.note.gnu.build-id)
 .note.gnu.build-id
                0x0000000000000114       0x24 /usr/lib/gcc/i686-linux-gnu/7/../../../i386-linux-gnu/crti.o

.hash
 *(.hash)

.gnu.hash       0x0000000000000138     0x14c4
 *(.gnu.hash)
 .gnu.hash      0x0000000000000138     0x14c4 /usr/lib/gcc/i686-linux-gnu/7/../../../i386-linux-gnu/crti.o

.dynsym         0x00000000000015fc     0x2b60
 *(.dynsym)
 .dynsym        0x00000000000015fc     0x2b60 /usr/lib/gcc/i686-linux-gnu/7/../../../i386-linux-gnu/crti.o

.dynstr         0x000000000000415c     0x30ab
 *(.dynstr)
 .dynstr        0x000000000000415c     0x30ab /usr/lib/gcc/i686-linux-gnu/7/../../../i386-linux-gnu/crti.o

.gnu.version    0x0000000000007208      0x56c
 *(.gnu.version)
 .gnu.version   0x0000000000007208      0x56c /usr/lib/gcc/i686-linux-gnu/7/../../../i386-linux-gnu/crti.o

.gnu.version_d  0x0000000000007774        0x0
 *(.gnu.version_d)
 .gnu.version_d
                0x0000000000007774        0x0 /usr/lib/gcc/i686-linux-gnu/7/../../../i386-linux-gnu/crti.o

.gnu.version_r  0x0000000000007774       0x40
 *(.gnu.version_r)
 .gnu.version_r
                0x0000000000007774       0x40 /usr/lib/gcc/i686-linux-gnu/7/../../../i386-linux-gnu/crti.o

.rel.dyn        0x00000000000077b4      0xed8
 *(.rel.init)
 .rel.init      0x00000000000077b4        0x0 /usr/lib/gcc/i686-linux-gnu/7/../../../i386-linux-gnu/crti.o
 *(.rel.text .rel.text.* .rel.gnu.linkonce.t.*)
 .rel.text      0x00000000000077b4      0x578 /usr/lib/gcc/i686-linux-gnu/7/../../../i386-linux-gnu/crti.o
 *(.rel.fini)
 .rel.fini      0x0000000000007d2c        0x0 /usr/lib/gcc/i686-linux-gnu/7/../../../i386-linux-gnu/crti.o
 *(.rel.rodata .rel.rodata.* .rel.gnu.linkonce.r.*)
 *(.rel.data.rel.ro .rel.data.rel.ro.* .rel.gnu.linkonce.d.rel.ro.*)
 .rel.data.rel.ro.local
                0x0000000000007d2c      0x218 /usr/lib/gcc/i686-linux-gnu/7/../../../i386-linux-gnu/crti.o
 .rel.data.rel.ro
                0x0000000000007f44       0xb0 /usr/lib/gcc/i686-linux-gnu/7/../../../i386-linux-gnu/crti.o
 *(.rel.data .rel.data.* .rel.gnu.linkonce.d.*)
 .rel.data.rel.local
                0x0000000000007ff4      0x338 /usr/lib/gcc/i686-linux-gnu/7/../../../i386-linux-gnu/crti.o
 .rel.data.rel  0x000000000000832c       0x78 /usr/lib/gcc/i686-linux-gnu/7/../../../i386-linux-gnu/crti.o
 *(.rel.tdata .rel.tdata.* .rel.gnu.linkonce.td.*)
 *(.rel.tbss .rel.tbss.* .rel.gnu.linkonce.tb.*)
 *(.rel.ctors)
 *(.rel.dtors)
 *(.rel.got)
 .rel.got       0x00000000000083a4      0x2d8 /usr/lib/gcc/i686-linux-gnu/7/../../../i386-linux-gnu/crti.o
 *(.rel.bss .rel.bss.* .rel.gnu.linkonce.b.*)
 *(.rel.ifunc)
 .rel.ifunc     0x000000000000867c        0x0 /usr/lib/gcc/i686-linux-gnu/7/../../../i386-linux-gnu/crti.o
 .rel.fini_array
                0x000000000000867c        0x8 /usr/lib/gcc/i686-linux-gnu/7/../../../i386-linux-gnu/crti.o
 .rel.init_array
                0x0000000000008684        0x8 /usr/lib/gcc/i686-linux-gnu/7/../../../i386-linux-gnu/crti.o

.rel.plt        0x000000000000868c      0x9f0
 *(.rel.plt)
 .rel.plt       0x000000000000868c      0x9f0 /usr/lib/gcc/i686-linux-gnu/7/../../../i386-linux-gnu/crti.o
 *(.rel.iplt)

.init           0x000000000000907c       0x23
 *(SORT_NONE(.init))
 .init          0x000000000000907c       0x1e /usr/lib/gcc/i686-linux-gnu/7/../../../i386-linux-gnu/crti.o
                0x000000000000907c                _init
 .init          0x000000000000909a        0x5 /usr/lib/gcc/i686-linux-gnu/7/../../../i386-linux-gnu/crtn.o

.plt            0x00000000000090a0     0x13f0
 *(.plt)
 .plt           0x00000000000090a0     0x13f0 /usr/lib/gcc/i686-linux-gnu/7/../../../i386-linux-gnu/crti.o
 *(.iplt)

.plt.got        0x000000000000a490       0x18
 *(.plt.got)
 .plt.got       0x000000000000a490       0x18 /usr/lib/gcc/i686-linux-gnu/7/../../../i386-linux-gnu/crti.o

.plt.sec
 *(.plt.sec)

.text           0x000000000000a4b0    0x1bd54
 *(.text.unlikely .text.*_unlikely .text.unlikely.*)
 *(.text.exit .text.exit.*)
 *(.text.startup .text.startup.*)
 *(.text.hot .text.hot.*)
 *(.text .stub .text.* .gnu.linkonce.t.*)
 .text          0x000000000000a4b0        0x0 /usr/lib/gcc/i686-linux-gnu/7/../../../i386-linux-gnu/crti.o
 .gnu.linkonce.t.__x86.get_pc_thunk.bx
                0x000000000000a4b0        0x4 /usr/lib/gcc/i686-linux-gnu/7/../../../i386-linux-gnu/crti.o
                0x000000000000a4b0                __x86.get_pc_thunk.bx
 *fill*         0x000000000000a4b4        0xc 
 .text          0x000000000000a4c0       0xe9 /usr/lib/gcc/i686-linux-gnu/7/crtbeginS.o
 .text.__x86.get_pc_thunk.dx
                0x000000000000a5a9        0x4 /usr/lib/gcc/i686-linux-gnu/7/crtbeginS.o
                0x000000000000a5a9                __x86.get_pc_thunk.dx
 .text          0x000000000000a5ad       0x85 border-router.o
 .text          0x000000000000a632      0x36b build/cooja/mtype248.o
                0x000000000000a6e4                platform_init_stage_one
                0x000000000000a707                platform_init_stage_two
                0x000000000000a72a                platform_init_stage_three
                0x000000000000a74d                platform_main_loop
                0x000000000000a7f3                Java_org_contikios_cooja_corecomm_Lib10_init
                0x000000000000a841                Java_org_contikios_cooja_corecomm_Lib10_getMemory
                0x000000000000a881                Java_org_contikios_cooja_corecomm_Lib10_setMemory
                0x000000000000a8f2                Java_org_contikios_cooja_corecomm_Lib10_tick
                0x000000000000a97c                Java_org_contikios_cooja_corecomm_Lib10_setReferenceAddress
 .text.__x86.get_pc_thunk.ax
                0x000000000000a99d        0x4 build/cooja/mtype248.o
                0x000000000000a99d                __x86.get_pc_thunk.ax
 .text          0x000000000000a9a1       0x8d build/cooja/mtype248.a(simEnvChange.o)
                0x000000000000a9a1                doActionsBeforeTick
                0x000000000000a9e7                doActionsAfterTick
 .text          0x000000000000aa2e       0xb6 build/cooja/mtype248.a(cooja_mt.o)
                0x000000000000aa2e                cooja_mt_start
                0x000000000000aa68                cooja_mt_exec
                0x000000000000aaaf                cooja_mt_yield
 .text          0x000000000000aae4       0xf2 build/cooja/mtype248.a(cooja_mtarch.o)
                0x000000000000aae4                cooja_mtarch_start
                0x000000000000ab68                cooja_sw
                0x000000000000ab96                cooja_mtarch_exec
                0x000000000000abc1                cooja_mtarch_yield
 .text          0x000000000000abd6      0x127 build/cooja/mtype248.a(rtimer-arch.o)
                0x000000000000abd6                rtimer_arch_init
                0x000000000000ac05                rtimer_arch_schedule
                0x000000000000ac47                rtimer_arch_next
                0x000000000000ac61                rtimer_arch_pending
                0x000000000000ac78                rtimer_arch_check
                0x000000000000ace3                rtimer_arch_now
 .text.__x86.get_pc_thunk.cx
                0x000000000000acfd        0x4 build/cooja/mtype248.a(rtimer-arch.o)
                0x000000000000acfd                __x86.get_pc_thunk.cx
 .text          0x000000000000ad01      0x101 build/cooja/mtype248.a(beep.o)
                0x000000000000ad01                beep_alarm
                0x000000000000ad1a                beep_beep
                0x000000000000ad33                beep
                0x000000000000ad4c                beep_down
                0x000000000000ad65                beep_on
                0x000000000000ad7e                beep_off
                0x000000000000ad97                beep_spinup
                0x000000000000adb0                beep_quick
                0x000000000000adc9                beep_long
 .text          0x000000000000ae02       0x9f build/cooja/mtype248.a(leds-arch.o)
                0x000000000000ae26                leds_arch_init
 .text          0x000000000000aea1       0x56 build/cooja/mtype248.a(moteid.o)
 .text          0x000000000000aef7      0x101 build/cooja/mtype248.a(pir-sensor.o)
 .text          0x000000000000aff8      0x1cc build/cooja/mtype248.a(rs232.o)
                0x000000000000aff8                rs232_init
                0x000000000000b008                rs232_set_speed
                0x000000000000b021                rs232_set_input
                0x000000000000b03a                rs232_send
                0x000000000000b070                rs232_print
                0x000000000000b09e                slip_arch_writeb
 .text          0x000000000000b1c4      0x101 build/cooja/mtype248.a(vib-sensor.o)
 .text          0x000000000000b2c5       0x7a build/cooja/mtype248.a(clock.o)
                0x000000000000b2c5                clock_init
                0x000000000000b2d5                clock_time
                0x000000000000b2ec                clock_seconds
                0x000000000000b30f                clock_delay
 .text          0x000000000000b33f      0x2b5 build/cooja/mtype248.a(cooja-log.o)
                0x000000000000b33f                simlog_char
                0x000000000000b3a3                simlog
                0x000000000000b43d                log_message
                0x000000000000b48c                log_set_putchar_with_slip
                0x000000000000b4a5                log_putchar
                0x000000000000b530                log_puts
                0x000000000000b562                log_printf
 .text          0x000000000000b5f4      0x36c build/cooja/mtype248.a(cfs-cooja.o)
                0x000000000000b5f4                cfs_open
                0x000000000000b66c                cfs_close
                0x000000000000b683                cfs_read
                0x000000000000b737                cfs_write
                0x000000000000b835                cfs_seek
                0x000000000000b8d2                cfs_remove
                0x000000000000b908                cfs_opendir
                0x000000000000b91c                cfs_readdir
                0x000000000000b930                cfs_closedir
 .text          0x000000000000b960      0x78b build/cooja/mtype248.a(cooja-radio.o)
                0x000000000000b9ce                radio_set_channel
                0x000000000000b9e7                radio_set_txpower
                0x000000000000ba0a                radio_signal_strength_last
                0x000000000000ba1f                radio_signal_strength_current
                0x000000000000ba34                radio_LQI
 .text          0x000000000000c0eb      0x130 build/cooja/mtype248.a(eeprom.o)
                0x000000000000c0eb                eeprom_init
                0x000000000000c0fb                eeprom_read
                0x000000000000c17b                eeprom_write
 .text          0x000000000000c21b       0x4e build/cooja/mtype248.a(random.o)
                0x000000000000c21b                random_init
                0x000000000000c24b                random_rand
 .text          0x000000000000c269      0x332 build/cooja/mtype248.a(sensors.o)
                0x000000000000c2b0                sensors_first
                0x000000000000c2c7                sensors_next
                0x000000000000c2f2                sensors_changed
                0x000000000000c33f                sensors_find
 .text          0x000000000000c59b      0x3fc build/cooja/mtype248.a(leds.o)
                0x000000000000c59b                leds_init
                0x000000000000c5f3                leds_single_on
                0x000000000000c66b                leds_single_off
                0x000000000000c6e3                leds_single_toggle
                0x000000000000c727                leds_on
                0x000000000000c7bf                leds_off
                0x000000000000c857                leds_toggle
                0x000000000000c8bd                leds_set
                0x000000000000c8f3                leds_get
 .text          0x000000000000c997      0x401 build/cooja/mtype248.a(gpio-hal-arch.o)
                0x000000000000c997                gpio_hal_arch_register_pin_callback
                0x000000000000ca18                gpio_hal_arch_init
                0x000000000000ca72                gpio_hal_arch_no_port_interrupt_enable
                0x000000000000caac                gpio_hal_arch_no_port_interrupt_disable
                0x000000000000cae6                gpio_hal_arch_no_port_pin_cfg_set
                0x000000000000cb15                gpio_hal_arch_no_port_pin_cfg_get
                0x000000000000cb45                gpio_hal_arch_no_port_pin_set_input
                0x000000000000cb61                gpio_hal_arch_no_port_pin_set_output
                0x000000000000cb7d                gpio_hal_arch_no_port_set_pin
                0x000000000000cba8                gpio_hal_arch_no_port_clear_pin
                0x000000000000cbd3                gpio_hal_arch_no_port_read_pin
                0x000000000000cc05                gpio_hal_arch_no_port_write_pin
                0x000000000000cc39                gpio_hal_arch_no_port_set_pins
                0x000000000000cc8a                gpio_hal_arch_no_port_clear_pins
                0x000000000000ccdb                gpio_hal_arch_no_port_read_pins
                0x000000000000cd2e                gpio_hal_arch_no_port_write_pins
 .text          0x000000000000cd98       0xc6 build/cooja/mtype248.a(buttons.o)
 .text          0x000000000000ce5e      0x8ae build/cooja/mtype248.a(webserver.o)
                0x000000000000d6f7                httpd_simple_get_script
 .text          0x000000000000d70c      0x3c6 build/cooja/mtype248.a(contiki-main.o)
                0x000000000000d70c                main
 .text          0x000000000000dad2       0xb0 build/cooja/mtype248.a(autostart.o)
                0x000000000000dad2                autostart_start
                0x000000000000db2b                autostart_exit
 .text          0x000000000000db82      0x400 build/cooja/mtype248.a(ctimer.o)
                0x000000000000dcc5                ctimer_init
                0x000000000000dd0a                ctimer_set
                0x000000000000dd3d                ctimer_set_with_process
                0x000000000000ddd4                ctimer_reset
                0x000000000000de42                ctimer_restart
                0x000000000000deb0                ctimer_stop
                0x000000000000df10                ctimer_expired
 .text          0x000000000000df82      0x4a3 build/cooja/mtype248.a(log.o)
                0x000000000000df82                log_6addr
                0x000000000000dfe6                log_6addr_compact_snprint
                0x000000000000e0a6                log_6addr_compact
                0x000000000000e10a                log_lladdr
                0x000000000000e191                log_lladdr_compact
                0x000000000000e20e                log_bytes
                0x000000000000e262                log_set_level
                0x000000000000e340                log_get_level
                0x000000000000e3d1                log_level_to_str
 .text          0x000000000000e425       0x39 build/cooja/mtype248.a(energest.o)
                0x000000000000e425                energest_init
                0x000000000000e435                energest_flush
                0x000000000000e445                energest_get_total_time
 .text          0x000000000000e45e      0x527 build/cooja/mtype248.a(etimer.o)
                0x000000000000e6b3                etimer_request_poll
                0x000000000000e764                etimer_set
                0x000000000000e79d                etimer_reset_with_new_interval
                0x000000000000e7dc                etimer_reset
                0x000000000000e812                etimer_restart
                0x000000000000e848                etimer_adjust
                0x000000000000e86f                etimer_expired
                0x000000000000e88c                etimer_expiration_time
                0x000000000000e8a8                etimer_start_time
                0x000000000000e8bc                etimer_pending
                0x000000000000e8d9                etimer_next_expiration_time
                0x000000000000e901                etimer_stop
 .text          0x000000000000e985       0x36 build/cooja/mtype248.a(node-id.o)
                0x000000000000e985                node_id_init
 .text          0x000000000000e9bb      0x122 build/cooja/mtype248.a(rtimer.o)
                0x000000000000e9bb                rtimer_init
                0x000000000000e9da                rtimer_set
                0x000000000000ea68                rtimer_run_next
 .text          0x000000000000eadd      0x5cb build/cooja/mtype248.a(process.o)
                0x000000000000eadd                process_alloc_event
                0x000000000000eafe                process_start
                0x000000000000ed03                process_exit
                0x000000000000ed2b                process_init
                0x000000000000eef3                process_run
                0x000000000000ef36                process_nevents
                0x000000000000ef5b                process_post
                0x000000000000f008                process_post_synch
                0x000000000000f04e                process_poll
                0x000000000000f08a                process_is_running
 .text.__x86.get_pc_thunk.si
                0x000000000000f0a8        0x4 build/cooja/mtype248.a(process.o)
                0x000000000000f0a8                __x86.get_pc_thunk.si
 .text          0x000000000000f0ac       0xf6 build/cooja/mtype248.a(timer.o)
                0x000000000000f0ac                timer_set
                0x000000000000f0db                timer_reset
                0x000000000000f112                timer_restart
                0x000000000000f138                timer_expired
                0x000000000000f176                timer_remaining
 .text          0x000000000000f1a2      0x311 build/cooja/mtype248.a(list.o)
                0x000000000000f1a2                list_init
                0x000000000000f1bb                list_head
                0x000000000000f1cf                list_copy
                0x000000000000f1e9                list_tail
                0x000000000000f229                list_add
                0x000000000000f27f                list_push
                0x000000000000f2b5                list_chop
                0x000000000000f329                list_pop
                0x000000000000f35b                list_remove
                0x000000000000f3cd                list_length
                0x000000000000f405                list_insert
                0x000000000000f454                list_item_next
                0x000000000000f475                list_contains
 .text          0x000000000000f4b3      0x566 build/cooja/mtype248.a(button-hal.o)
                0x000000000000f6a7                button_hal_get_by_id
                0x000000000000f6f1                button_hal_get_by_index
                0x000000000000f72b                button_hal_get_state
                0x000000000000f78d                button_hal_init
 .text          0x000000000000fa19      0x242 build/cooja/mtype248.a(serial-line.o)
                0x000000000000fa19                serial_line_input_byte
                0x000000000000fc11                serial_line_init
 .text          0x000000000000fc5b      0x1d6 build/cooja/mtype248.a(gpio-hal.o)
                0x000000000000fc5b                gpio_hal_register_handler
                0x000000000000fc89                gpio_hal_event_handler
                0x000000000000fcf6                gpio_hal_init
                0x000000000000fd25                gpio_hal_arch_port_toggle_pin
                0x000000000000fd70                gpio_hal_arch_port_toggle_pins
                0x000000000000fdad                gpio_hal_arch_no_port_toggle_pin
                0x000000000000fdfa                gpio_hal_arch_no_port_toggle_pins
 .text          0x000000000000fe31      0x3a9 build/cooja/mtype248.a(queuebuf.o)
                0x000000000000fe45                queuebuf_init
                0x000000000000fe81                queuebuf_numfree
                0x000000000000feab                queuebuf_new_from_packetbuf
                0x000000000000ff5f                queuebuf_update_attr_from_packetbuf
                0x000000000000ffa3                queuebuf_update_from_packetbuf
                0x0000000000010002                queuebuf_free
                0x0000000000010060                queuebuf_to_packetbuf
                0x00000000000100dd                queuebuf_dataptr
                0x0000000000010129                queuebuf_datalen
                0x0000000000010156                queuebuf_addr
                0x0000000000010195                queuebuf_attr
                0x00000000000101ca                queuebuf_debug_print
 .text          0x00000000000101da      0x4dd build/cooja/mtype248.a(packetbuf.o)
                0x00000000000101da                packetbuf_clear
                0x0000000000010210                packetbuf_copyfrom
                0x0000000000010270                packetbuf_copyto
                0x000000000001030e                packetbuf_hdralloc
                0x000000000001039e                packetbuf_hdrreduce
                0x00000000000103f0                packetbuf_set_datalen
                0x0000000000010415                packetbuf_dataptr
                0x000000000001043c                packetbuf_hdrptr
                0x0000000000010451                packetbuf_datalen
                0x0000000000010467                packetbuf_hdrlen
                0x0000000000010486                packetbuf_totlen
                0x00000000000104a6                packetbuf_remaininglen
                0x00000000000104c3                packetbuf_attr_clear
                0x0000000000010529                packetbuf_attr_copyto
                0x000000000001056f                packetbuf_attr_copyfrom
                0x00000000000105b5                packetbuf_set_attr
                0x00000000000105eb                packetbuf_attr
                0x0000000000010611                packetbuf_set_addr
                0x0000000000010659                packetbuf_addr
                0x0000000000010683                packetbuf_holds_broadcast
 .text          0x00000000000106b7      0x13c build/cooja/mtype248.a(netstack.o)
                0x00000000000106b7                netstack_process_ip_callback
                0x0000000000010758                netstack_ip_packet_processor_add
                0x000000000001078c                uip_ds6_ip_packet_processor_rm
                0x00000000000107ba                netstack_init
 .text          0x00000000000107f3       0x75 build/cooja/mtype248.a(linkaddr.o)
                0x00000000000107f3                linkaddr_copy
                0x0000000000010813                linkaddr_cmp
                0x0000000000010846                linkaddr_set_node_addr
 .text          0x0000000000010868      0x2ae build/cooja/mtype248.a(csma.o)
 .text          0x0000000000010b16      0xa6f build/cooja/mtype248.a(csma-output.o)
                0x0000000000011288                csma_output_packet
                0x0000000000011537                csma_output_init
 .text          0x0000000000011585      0x772 build/cooja/mtype248.a(uip-sr.o)
                0x0000000000011585                uip_sr_num_nodes
                0x0000000000011631                uip_sr_get_node
                0x0000000000011698                uip_sr_is_addr_reachable
                0x0000000000011755                uip_sr_expire_parent
                0x00000000000117a8                uip_sr_update_node
                0x00000000000118ec                uip_sr_init
                0x0000000000011932                uip_sr_node_head
                0x000000000001195c                uip_sr_node_next
                0x0000000000011982                uip_sr_periodic
                0x0000000000011a9e                uip_sr_free_all
                0x0000000000011b23                uip_sr_link_snprint
 .text          0x0000000000011cf7      0xe47 build/cooja/mtype248.a(uip-ds6.o)
                0x0000000000011cf7                uip_ds6_default_prefix
                0x0000000000011d0c                uip_ds6_set_default_prefix
                0x0000000000011d42                uip_ds6_init
                0x0000000000011fdd                uip_ds6_periodic
                0x0000000000012085                uip_ds6_list_loop
                0x0000000000012154                uip_ds6_prefix_add
                0x000000000001221b                uip_ds6_prefix_rm
                0x0000000000012238                uip_ds6_prefix_lookup
                0x000000000001228b                uip_ds6_is_addr_onlink
                0x0000000000012318                uip_ds6_addr_add
                0x000000000001245a                uip_ds6_addr_rm
                0x0000000000012519                uip_ds6_addr_lookup
                0x0000000000012569                uip_ds6_get_link_local
                0x0000000000012607                uip_ds6_get_global
                0x00000000000126a5                uip_ds6_maddr_add
                0x0000000000012721                uip_ds6_maddr_rm
                0x000000000001273e                uip_ds6_maddr_lookup
                0x0000000000012791                uip_ds6_aaddr_add
                0x000000000001280a                uip_ds6_aaddr_rm
                0x0000000000012827                uip_ds6_aaddr_lookup
                0x0000000000012877                uip_ds6_select_src
                0x00000000000129e5                uip_ds6_set_addr_iid
                0x0000000000012a1a                uip_ds6_set_lladdr_from_iid
                0x0000000000012a4d                get_match_length
                0x0000000000012ae8                uip_ds6_compute_reachable_time
 .text          0x0000000000012b3e      0x453 build/cooja/mtype248.a(uip-ds6-route.o)
                0x0000000000012ba0                uip_ds6_route_init
                0x0000000000012bdc                uip_ds6_route_count_nexthop_neighbors
                0x0000000000012bf0                uip_ds6_route_nexthop
                0x0000000000012c04                uip_ds6_route_head
                0x0000000000012c18                uip_ds6_route_next
                0x0000000000012c2c                uip_ds6_route_is_nexthop
                0x0000000000012c40                uip_ds6_route_num_routes
                0x0000000000012c54                uip_ds6_route_lookup
                0x0000000000012c68                uip_ds6_route_add
                0x0000000000012c85                uip_ds6_route_rm
                0x0000000000012c95                uip_ds6_route_rm_by_nexthop
                0x0000000000012ca5                uip_ds6_defrt_head
                0x0000000000012ccf                uip_ds6_defrt_add
                0x0000000000012d8f                uip_ds6_defrt_rm
                0x0000000000012e08                uip_ds6_defrt_lookup
                0x0000000000012e7f                uip_ds6_defrt_choose
                0x0000000000012f05                uip_ds6_defrt_periodic
 .text          0x0000000000012f91      0x7c8 build/cooja/mtype248.a(psock.o)
                0x00000000000132f9                psock_send
                0x0000000000013389                psock_generator_send
                0x00000000000134b4                psock_datalen
                0x00000000000134d6                psock_newdata
                0x0000000000013531                psock_readto
                0x0000000000013612                psock_readbuf_len
                0x000000000001370b                psock_init
 .text          0x0000000000013759      0xcac build/cooja/mtype248.a(tcpip.o)
                0x000000000001377f                tcpip_output
                0x00000000000138aa                tcp_connect
                0x0000000000013912                tcp_unlisten
                0x0000000000013987                tcp_listen
                0x00000000000139f9                tcp_attach
                0x0000000000013a1b                udp_attach
                0x0000000000013a3d                udp_new
                0x0000000000013a97                udp_broadcast_new
                0x0000000000013d69                tcpip_input
                0x0000000000013fac                tcpip_ipv6_output
                0x00000000000141e8                tcpip_poll_udp
                0x0000000000014218                tcpip_poll_tcp
                0x0000000000014248                tcpip_uipcall
 .text          0x0000000000014405     0x33b5 build/cooja/mtype248.a(uip6.o)
                0x0000000000014405                uip_add32
                0x00000000000145f0                uip_chksum
                0x00000000000146e8                uip_icmp6chksum
                0x0000000000014707                uip_tcpchksum
                0x0000000000014726                uip_udpchksum
                0x0000000000014745                uip_init
                0x00000000000147f3                uip_connect
                0x0000000000014990                uip_remove_ext_hdr
                0x0000000000014a8b                uip_udp_new
                0x0000000000014bd0                uip_unlisten
                0x0000000000014c20                uip_listen
                0x0000000000014f30                uip_process
                0x000000000001764a                uip_htons
                0x0000000000017676                uip_htonl
                0x00000000000176c0                uip_send
 .text          0x00000000000177ba      0x43e build/cooja/mtype248.a(uip-ds6-nbr.o)
                0x00000000000177ba                uip_ds6_neighbors_init
                0x00000000000177f0                uip_ds6_nbr_add
                0x000000000001788a                uip_ds6_nbr_rm
                0x00000000000178e9                uip_ds6_nbr_update_ll
                0x00000000000179e6                uip_ds6_nbr_get_ipaddr
                0x0000000000017a05                uip_ds6_nbr_get_ll
                0x0000000000017a32                uip_ds6_nbr_num
                0x0000000000017a8c                uip_ds6_nbr_head
                0x0000000000017ab6                uip_ds6_nbr_next
                0x0000000000017ae3                uip_ds6_nbr_lookup
                0x0000000000017b4a                uip_ds6_nbr_ll_lookup
                0x0000000000017b77                uip_ds6_nbr_ipaddr_from_lladdr
                0x0000000000017baa                uip_ds6_nbr_lladdr_from_ipaddr
                0x0000000000017be8                uip_ds6_link_callback
 .text          0x0000000000017bf8      0x810 build/cooja/mtype248.a(uip-nd6.o)
                0x00000000000183dd                uip_nd6_init
 .text          0x0000000000018408     0x33b0 build/cooja/mtype248.a(sicslowpan.o)
                0x0000000000018b06                netstack_sniffer_add
                0x0000000000018b1f                netstack_sniffer_remove
                0x000000000001b777                sicslowpan_init
                0x000000000001b7a3                sicslowpan_get_last_rssi
 .text          0x000000000001b7b8      0x51a build/cooja/mtype248.a(uiplib.o)
                0x000000000001b7b8                uiplib_ip6addrconv
                0x000000000001b97e                uiplib_ip4addrconv
                0x000000000001ba4b                uiplib_ipaddr_print
                0x000000000001baaf                uiplib_ipaddr_snprint
 .text          0x000000000001bcd2      0x610 build/cooja/mtype248.a(rpl.o)
                0x000000000001bcd2                rpl_lollipop_greater_than
                0x000000000001bd35                rpl_get_global_address
                0x000000000001be6b                rpl_link_callback
                0x000000000001bece                rpl_has_joined
                0x000000000001bf04                rpl_is_reachable
                0x000000000001bfa7                rpl_reset_prefix
                0x000000000001c023                rpl_set_prefix_from_addr
                0x000000000001c135                rpl_set_prefix
                0x000000000001c2a9                rpl_set_leaf_only
                0x000000000001c2cc                rpl_get_leaf_only
 .text          0x000000000001c2e2     0x1491 build/cooja/mtype248.a(rpl-icmp6.o)
                0x000000000001c43f                rpl_icmp6_update_nbr_table
                0x000000000001c4f1                rpl_icmp6_dis_output
                0x000000000001cb06                rpl_icmp6_dio_output
                0x000000000001d35f                rpl_icmp6_dao_output
                0x000000000001d68c                rpl_icmp6_dao_ack_output
                0x000000000001d713                rpl_icmp6_init
 .text          0x000000000001d773      0x2e4 build/cooja/mtype248.a(rpl-dag-root.o)
                0x000000000001d773                rpl_dag_root_print_links
                0x000000000001d8cc                rpl_dag_root_set_prefix
                0x000000000001d907                rpl_dag_root_start
                0x000000000001da15                rpl_dag_root_is_root
 .text          0x000000000001da57      0x277 build/cooja/mtype248.a(slip-bridge.o)
                0x000000000001da57                request_prefix
 .text          0x000000000001dcce      0x711 build/cooja/mtype248.a(slip.o)
                0x000000000001dcce                slip_set_input_callback
                0x000000000001dce7                slip_send
                0x000000000001dd19                slip_write
                0x000000000001e284                slip_input_byte
 .text          0x000000000001e3df       0x6b build/cooja/mtype248.a(watchdog.o)
                0x000000000001e3df                watchdog_init
                0x000000000001e3ef                watchdog_start
                0x000000000001e3ff                watchdog_periodic
                0x000000000001e42a                watchdog_stop
                0x000000000001e43a                watchdog_reboot
 .text          0x000000000001e44a       0x75 build/cooja/mtype248.a(int-master.o)
                0x000000000001e44a                int_master_enable
                0x000000000001e464                int_master_read_and_disable
                0x000000000001e48c                int_master_status_set
                0x000000000001e4a5                int_master_is_enabled
 .text          0x000000000001e4bf       0x2b build/cooja/mtype248.a(slip-arch.o)
                0x000000000001e4bf                slip_arch_init
 .text          0x000000000001e4ea      0x691 build/cooja/mtype248.a(httpd-simple.o)
                0x000000000001e97a                httpd_appcall
                0x000000000001eb41                httpd_init
 .text          0x000000000001eb7b      0x175 build/cooja/mtype248.a(rpl-border-rout)
                0x000000000001eb7b                print_local_addresses
                0x000000000001ec81                set_prefix_64
                0x000000000001ecc3                rpl_border_router_init
 .text          0x000000000001ecf0      0x11d build/cooja/mtype248.a(stimer.o)
                0x000000000001ecf0                stimer_set
                0x000000000001ed1f                stimer_reset
                0x000000000001ed56                stimer_restart
                0x000000000001ed7c                stimer_expired
                0x000000000001edb8                stimer_remaining
                0x000000000001ede4                stimer_elapsed
 .text          0x000000000001ee0d      0x188 build/cooja/mtype248.a(ringbuf.o)
                0x000000000001ee0d                ringbuf_init
                0x000000000001ee49                ringbuf_put
                0x000000000001eed1                ringbuf_get
                0x000000000001ef48                ringbuf_size
                0x000000000001ef64                ringbuf_elements
 .text          0x000000000001ef95      0x1ec build/cooja/mtype248.a(memb.o)
                0x000000000001ef95                memb_init
                0x000000000001eff9                memb_alloc
                0x000000000001f066                memb_free
                0x000000000001f0e7                memb_inmemb
                0x000000000001f130                memb_numfree
 .text          0x000000000001f181       0x31 build/cooja/mtype248.a(assert.o)
                0x000000000001f181                _xassert
 .text          0x000000000001f1b2      0xb68 build/cooja/mtype248.a(nbr-table.o)
                0x000000000001f554                nbr_table_count_entries
                0x000000000001f601                nbr_table_gc_get_worst
                0x000000000001f641                nbr_table_can_accept_new
                0x000000000001f7ca                nbr_table_entry_is_allowed
                0x000000000001f86a                nbr_table_register
                0x000000000001f8e8                nbr_table_is_registered
                0x000000000001f92d                nbr_table_head
                0x000000000001f99a                nbr_table_next
                0x000000000001fa0c                nbr_table_add_lladdr
                0x000000000001fb5b                nbr_table_get_from_lladdr
                0x000000000001fbb8                nbr_table_remove
                0x000000000001fc03                nbr_table_lock
                0x000000000001fc29                nbr_table_unlock
                0x000000000001fc4f                nbr_table_get_lladdr
                0x000000000001fc85                nbr_table_clear
                0x000000000001fcca                nbr_table_key_head
                0x000000000001fcf4                nbr_table_key_next
 .text          0x000000000001fd1a      0x450 build/cooja/mtype248.a(link-stats.o)
                0x000000000001fd1a                link_stats_from_lladdr
                0x000000000001fd47                link_stats_get_lladdr
                0x000000000001fd74                link_stats_is_fresh
                0x000000000001fdc1                guess_etx_from_rssi
                0x000000000001fe47                link_stats_packet_sent
                0x000000000001ff8b                link_stats_input_callback
                0x00000000000200bf                link_stats_reset
                0x0000000000020121                link_stats_init
 .text          0x000000000002016a      0x1a8 build/cooja/mtype248.a(mac-sequence.o)
                0x000000000002016a                mac_sequence_is_duplicate
                0x000000000002022a                mac_sequence_register_seqno
 .text          0x0000000000020312       0x2d build/cooja/mtype248.a(mac.o)
                0x0000000000020312                mac_call_sent_callback
 .text          0x000000000002033f      0x477 build/cooja/mtype248.a(framer-802154.o)
                0x00000000000204e2                framer_802154_setup_params
 .text          0x00000000000207b6      0xc1a build/cooja/mtype248.a(frame802154.o)
                0x00000000000207f1                frame802154_get_pan_id
                0x0000000000020807                frame802154_set_pan_id
                0x000000000002082c                frame802154_has_panid
                0x00000000000209e5                frame802154_check_dest_panid
                0x0000000000020a77                frame802154_is_broadcast_addr
                0x0000000000020ace                frame802154_extract_linkaddr
                0x0000000000020d57                frame802154_hdrlen
                0x0000000000020dd4                frame802154_create_fcf
                0x0000000000020e96                frame802154_create
                0x0000000000021021                frame802154_parse_fcf
                0x000000000002110d                frame802154_parse
 .text          0x00000000000213d0       0x4e build/cooja/mtype248.a(csma-security.o)
                0x00000000000213d0                csma_security_create_frame
                0x0000000000021401                csma_security_parse_frame
 .text          0x000000000002141e      0x5d3 build/cooja/mtype248.a(uipbuf.o)
                0x000000000002141e                uipbuf_clear
                0x0000000000021455                uipbuf_add_ext_hdr
                0x00000000000214f0                uipbuf_set_len
                0x000000000002152a                uipbuf_set_len_field
                0x0000000000021560                uipbuf_get_len_field
                0x000000000002158a                uipbuf_get_next_header
                0x00000000000216db                uipbuf_get_last_header
                0x000000000002175e                uipbuf_search_header
                0x0000000000021822                uipbuf_get_attr
                0x0000000000021853                uipbuf_set_attr
                0x0000000000021894                uipbuf_set_default_attr
                0x00000000000218d5                uipbuf_clear_attr
                0x0000000000021915                uipbuf_set_attr_flag
                0x0000000000021941                uipbuf_clr_attr_flag
                0x0000000000021973                uipbuf_is_attr_flag
                0x00000000000219a1                uipbuf_init
 .text          0x00000000000219f1      0x8b7 build/cooja/mtype248.a(uip-icmp6.o)
                0x0000000000021a76                uip_icmp6_input
                0x0000000000021ad7                uip_icmp6_register_input_handler
                0x0000000000021c8b                uip_icmp6_error_output
                0x0000000000021fcd                uip_icmp6_send
                0x00000000000221fb                uip_icmp6_echo_reply_callback_add
                0x000000000002223e                uip_icmp6_echo_reply_callback_rm
                0x000000000002226c                uip_icmp6_init
 .text          0x00000000000222a8      0x1a5 build/cooja/mtype248.a(uip-packetqueue)
                0x00000000000222e8                uip_packetqueue_new
                0x0000000000022301                uip_packetqueue_alloc
                0x0000000000022370                uip_packetqueue_free
                0x00000000000223c8                uip_packetqueue_buf
                0x00000000000223ef                uip_packetqueue_buflen
                0x000000000002241a                uip_packetqueue_set_buflen
 .text          0x000000000002244d       0x8d build/cooja/mtype248.a(rpl-nbr-policy.)
                0x0000000000022499                rpl_nbr_gc_get_worst
 .text          0x00000000000224da      0xaad build/cooja/mtype248.a(rpl-neighbor.o)
                0x0000000000022576                rpl_neighbor_snprint
                0x000000000002285e                rpl_neighbor_print_list
                0x0000000000022931                rpl_neighbor_count
                0x0000000000022a14                rpl_neighbor_get_from_lladdr
                0x0000000000022a41                rpl_neighbor_is_acceptable_parent
                0x0000000000022a87                rpl_neighbor_get_link_metric
                0x0000000000022acd                rpl_neighbor_rank_via_nbr
                0x0000000000022b13                rpl_neighbor_get_lladdr
                0x0000000000022b40                rpl_neighbor_get_ipaddr
                0x0000000000022b76                rpl_neighbor_get_link_stats
                0x0000000000022bac                rpl_neighbor_is_fresh
                0x0000000000022be2                rpl_neighbor_is_parent
                0x0000000000022c19                rpl_neighbor_set_preferred_parent
                0x0000000000022cd3                rpl_neighbor_remove_all
                0x0000000000022d40                rpl_neighbor_get_from_ipaddr
                0x0000000000022e7a                rpl_neighbor_select_best
                0x0000000000022f55                rpl_neighbor_init
 .text          0x0000000000022f87     0x11f4 build/cooja/mtype248.a(rpl-dag.o)
                0x0000000000022f87                rpl_dag_state_to_str
                0x0000000000022fd5                rpl_dag_get_root_ipaddr
                0x0000000000023025                rpl_dag_leave
                0x00000000000230db                rpl_dag_poison_and_leave
                0x0000000000023107                rpl_dag_periodic
                0x00000000000231cc                rpl_is_addr_in_our_dag
                0x000000000002322b                rpl_get_default_instance
                0x0000000000023255                rpl_get_any_dag
                0x00000000000232cb                rpl_refresh_routes
                0x000000000002332e                rpl_global_repair
                0x00000000000233ff                rpl_local_repair
                0x0000000000023464                rpl_dag_ready_to_advertise
                0x00000000000234bd                rpl_dag_update_state
                0x0000000000023d39                rpl_process_dio
                0x0000000000023dd4                rpl_process_dis
                0x0000000000023e2a                rpl_process_dao
                0x0000000000023ecb                rpl_process_dao_ack
                0x0000000000023f87                rpl_process_hbh
                0x0000000000023fe7                rpl_dag_init_root
                0x0000000000024149                rpl_dag_init
 .text          0x000000000002417b      0xd8d build/cooja/mtype248.a(rpl-timers.o)
                0x000000000002417b                rpl_timers_schedule_periodic_dis
                0x0000000000024325                rpl_timers_dio_reset
                0x000000000002449d                rpl_timers_schedule_unicast_dio
                0x0000000000024670                rpl_timers_schedule_dao
                0x0000000000024776                rpl_timers_schedule_dao_ack
                0x0000000000024845                rpl_timers_notify_dao_ack
                0x00000000000248cb                get_probing_delay
                0x0000000000024910                get_probing_target
                0x0000000000024b45                rpl_schedule_probing
                0x0000000000024b91                rpl_schedule_probing_now
                0x0000000000024c2b                rpl_timers_unschedule_leaving
                0x0000000000024c85                rpl_timers_schedule_leaving
                0x0000000000024cea                rpl_timers_init
                0x0000000000024dac                rpl_timers_stop_dag_timers
                0x0000000000024e69                rpl_timers_unschedule_state_update
                0x0000000000024ea5                rpl_timers_schedule_state_update
 .text          0x0000000000024f08      0xd42 build/cooja/mtype248.a(rpl-ext-header.)
                0x0000000000024f08                rpl_ext_header_srh_get_next_hop
                0x0000000000025013                rpl_ext_header_srh_update
                0x0000000000025645                rpl_ext_header_hbh_update
                0x00000000000259c4                rpl_ext_header_update
                0x0000000000025a73                rpl_ext_header_remove
 .text          0x0000000000025c4a      0x39b build/cooja/mtype248.a(rpl-mrhof.o)
 .text          0x0000000000025fe5      0x201 build/cooja/mtype248.a(border-router-e)
 *fill*         0x00000000000261e6        0xa 
 .text          0x00000000000261f0       0x14 /usr/lib/i386-linux-gnu/libc_nonshared.a(stack_chk_fail_local.oS)
                0x00000000000261f0                __stack_chk_fail_local
 .text          0x0000000000026204        0x0 /usr/lib/gcc/i686-linux-gnu/7/crtendS.o
 .text          0x0000000000026204        0x0 /usr/lib/gcc/i686-linux-gnu/7/../../../i386-linux-gnu/crtn.o
 *(.gnu.warning)

.fini           0x0000000000026204       0x14
 *(SORT_NONE(.fini))
 .fini          0x0000000000026204        0xf /usr/lib/gcc/i686-linux-gnu/7/../../../i386-linux-gnu/crti.o
                0x0000000000026204                _fini
 .fini          0x0000000000026213        0x5 /usr/lib/gcc/i686-linux-gnu/7/../../../i386-linux-gnu/crtn.o
                [!provide]                        PROVIDE (__etext = .)
                [!provide]                        PROVIDE (_etext = .)
                [!provide]                        PROVIDE (etext = .)

.rodata         0x0000000000026220      0x8ee
 *(.rodata .rodata.* .gnu.linkonce.r.*)
 .rodata        0x0000000000026220       0x56 border-router.o
 *fill*         0x0000000000026276        0x2 
 .rodata        0x0000000000026278        0x6 build/cooja/mtype248.a(leds-arch.o)
                0x0000000000026278                leds_arch_leds
 .rodata        0x000000000002627e        0x4 build/cooja/mtype248.a(pir-sensor.o)
 .rodata        0x0000000000026282        0x6 build/cooja/mtype248.a(rs232.o)
 .rodata        0x0000000000026288        0xa build/cooja/mtype248.a(vib-sensor.o)
 *fill*         0x0000000000026292        0x2 
 .rodata        0x0000000000026294       0x27 build/cooja/mtype248.a(cfs-cooja.o)
 *fill*         0x00000000000262bb        0x1 
 .rodata        0x00000000000262bc       0x68 build/cooja/mtype248.a(cooja-radio.o)
 .rodata        0x0000000000026324        0x8 build/cooja/mtype248.a(sensors.o)
 .rodata        0x000000000002632c       0x14 build/cooja/mtype248.a(buttons.o)
                0x0000000000026338                button_hal_button_count
 .rodata        0x0000000000026340       0xc3 build/cooja/mtype248.a(webserver.o)
 *fill*         0x0000000000026403        0x1 
 .rodata        0x0000000000026404       0xf4 build/cooja/mtype248.a(contiki-main.o)
 .rodata        0x00000000000264f8        0xf build/cooja/mtype248.a(ctimer.o)
 *fill*         0x0000000000026507        0x1 
 .rodata        0x0000000000026508       0xc4 build/cooja/mtype248.a(log.o)
 .rodata        0x00000000000265cc        0xc build/cooja/mtype248.a(etimer.o)
 .rodata        0x00000000000265d8       0x13 build/cooja/mtype248.a(button-hal.o)
 .rodata        0x00000000000265eb        0xe build/cooja/mtype248.a(serial-line.o)
 *fill*         0x00000000000265f9        0x3 
 .rodata        0x00000000000265fc        0x8 build/cooja/mtype248.a(linkaddr.o)
                0x00000000000265fc                linkaddr_null
 .rodata        0x0000000000026604        0x5 build/cooja/mtype248.a(csma.o)
 *fill*         0x0000000000026609        0x3 
 .rodata        0x000000000002660c       0x24 build/cooja/mtype248.a(csma-output.o)
 .rodata        0x0000000000026630       0x44 build/cooja/mtype248.a(uip-sr.o)
 .rodata        0x0000000000026674       0x4d build/cooja/mtype248.a(uip-ds6-route.o)
 .rodata        0x00000000000266c1        0xd build/cooja/mtype248.a(tcpip.o)
 *fill*         0x00000000000266ce        0x2 
 .rodata        0x00000000000266d0       0x48 build/cooja/mtype248.a(uip6.o)
 .rodata        0x0000000000026718       0x1f build/cooja/mtype248.a(sicslowpan.o)
                0x0000000000026718                unc_llconf
                0x000000000002671c                unc_ctxconf
                0x0000000000026720                unc_mxconf
                0x0000000000026724                llprefix
 .rodata        0x0000000000026737       0x2d build/cooja/mtype248.a(uiplib.o)
 .rodata        0x0000000000026764        0x9 build/cooja/mtype248.a(rpl.o)
 .rodata        0x000000000002676d       0x11 build/cooja/mtype248.a(slip-bridge.o)
 .rodata        0x000000000002677e        0xc build/cooja/mtype248.a(slip.o)
 *fill*         0x000000000002678a       0x16 
 .rodata        0x00000000000267a0      0x154 build/cooja/mtype248.a(httpd-simple.o)
                0x00000000000267fc                http_content_type_html
                0x0000000000026820                http_header_200
                0x0000000000026880                http_header_404
                0x00000000000268e0                http_get
                0x00000000000268e8                http_index_html
 .rodata        0x00000000000268f4       0x34 build/cooja/mtype248.a(rpl-border-rout)
 .rodata        0x0000000000026928       0x25 build/cooja/mtype248.a(assert.o)
 *fill*         0x000000000002694d        0x3 
 .rodata        0x0000000000026950       0x58 build/cooja/mtype248.a(rpl-neighbor.o)
 .rodata        0x00000000000269a8       0xd7 build/cooja/mtype248.a(rpl-dag.o)
 .rodata        0x0000000000026a7f        0xc build/cooja/mtype248.a(rpl-timers.o)
 .rodata        0x0000000000026a8b       0x83 build/cooja/mtype248.a(border-router-e)

.rodata1
 *(.rodata1)

.eh_frame_hdr   0x0000000000026b10     0x17c4
 *(.eh_frame_hdr)
 .eh_frame_hdr  0x0000000000026b10     0x17c4 border-router.o
                0x0000000000026b10                __GNU_EH_FRAME_HDR
 *(.eh_frame_entry .eh_frame_entry.*)

.eh_frame       0x00000000000282d4     0x66c8
 *(.eh_frame)
 .eh_frame      0x00000000000282d4       0x3c /usr/lib/gcc/i686-linux-gnu/7/../../../i386-linux-gnu/crti.o
                                         0x40 (size before relaxing)
 .eh_frame      0x0000000000028310       0x14 /usr/lib/gcc/i686-linux-gnu/7/../../../i386-linux-gnu/crti.o
                                         0x2c (size before relaxing)
 .eh_frame      0x0000000000028324       0x24 border-router.o
                                         0x50 (size before relaxing)
 .eh_frame      0x0000000000028348      0x1ac build/cooja/mtype248.o
                                        0x1ec (size before relaxing)
 .eh_frame      0x00000000000284f4       0x48 build/cooja/mtype248.a(simEnvChange.o)
                                         0x74 (size before relaxing)
 .eh_frame      0x000000000002853c       0x6c build/cooja/mtype248.a(cooja_mt.o)
                                         0x98 (size before relaxing)
 .eh_frame      0x00000000000285a8       0x88 build/cooja/mtype248.a(cooja_mtarch.o)
                                         0xc8 (size before relaxing)
 .eh_frame      0x0000000000028630       0xe4 build/cooja/mtype248.a(rtimer-arch.o)
                                        0x110 (size before relaxing)
 .eh_frame      0x0000000000028714      0x160 build/cooja/mtype248.a(beep.o)
                                        0x18c (size before relaxing)
 .eh_frame      0x0000000000028874       0x88 build/cooja/mtype248.a(leds-arch.o)
                                         0xc8 (size before relaxing)
 .eh_frame      0x00000000000288fc       0x44 build/cooja/mtype248.a(moteid.o)
                                         0x70 (size before relaxing)
 .eh_frame      0x0000000000028940       0xa4 build/cooja/mtype248.a(pir-sensor.o)
                                         0xe4 (size before relaxing)
 .eh_frame      0x00000000000289e4      0x110 build/cooja/mtype248.a(rs232.o)
                                        0x150 (size before relaxing)
 .eh_frame      0x0000000000028af4       0xa4 build/cooja/mtype248.a(vib-sensor.o)
                                         0xe4 (size before relaxing)
 .eh_frame      0x0000000000028b98       0xc0 build/cooja/mtype248.a(clock.o)
                                         0xec (size before relaxing)
 .eh_frame      0x0000000000028c58      0x130 build/cooja/mtype248.a(cooja-log.o)
                                        0x170 (size before relaxing)
 .eh_frame      0x0000000000028d88      0x16c build/cooja/mtype248.a(cfs-cooja.o)
                                        0x1ac (size before relaxing)
 .eh_frame      0x0000000000028ef4      0x374 build/cooja/mtype248.a(cooja-radio.o)
                                        0x3b4 (size before relaxing)
 .eh_frame      0x0000000000029268       0xa8 build/cooja/mtype248.a(eeprom.o)
                                         0xe8 (size before relaxing)
 .eh_frame      0x0000000000029310       0x48 build/cooja/mtype248.a(random.o)
                                         0x74 (size before relaxing)
 .eh_frame      0x0000000000029358       0xd0 build/cooja/mtype248.a(sensors.o)
                                        0x110 (size before relaxing)
 .eh_frame      0x0000000000029428      0x140 build/cooja/mtype248.a(leds.o)
                                        0x180 (size before relaxing)
 .eh_frame      0x0000000000029568      0x228 build/cooja/mtype248.a(gpio-hal-arch.o)
                                        0x27c (size before relaxing)
 .eh_frame      0x0000000000029790       0xa4 build/cooja/mtype248.a(buttons.o)
                                         0xe4 (size before relaxing)
 .eh_frame      0x0000000000029834       0x9c build/cooja/mtype248.a(webserver.o)
                                         0xdc (size before relaxing)
 .eh_frame      0x00000000000298d0       0x38 build/cooja/mtype248.a(contiki-main.o)
                                         0x64 (size before relaxing)
 .eh_frame      0x0000000000029908       0x48 build/cooja/mtype248.a(autostart.o)
                                         0x74 (size before relaxing)
 .eh_frame      0x0000000000029950      0x11c build/cooja/mtype248.a(ctimer.o)
                                        0x15c (size before relaxing)
 .eh_frame      0x0000000000029a6c      0x144 build/cooja/mtype248.a(log.o)
                                        0x184 (size before relaxing)
 .eh_frame      0x0000000000029bb0       0x60 build/cooja/mtype248.a(energest.o)
                                         0x8c (size before relaxing)
 .eh_frame      0x0000000000029c10      0x204 build/cooja/mtype248.a(etimer.o)
                                        0x244 (size before relaxing)
 .eh_frame      0x0000000000029e14       0x20 build/cooja/mtype248.a(node-id.o)
                                         0x4c (size before relaxing)
 .eh_frame      0x0000000000029e34       0x6c build/cooja/mtype248.a(rtimer.o)
                                         0xc0 (size before relaxing)
 .eh_frame      0x0000000000029ea0      0x1ec build/cooja/mtype248.a(process.o)
                                        0x22c (size before relaxing)
 .eh_frame      0x000000000002a08c       0xb4 build/cooja/mtype248.a(timer.o)
                                         0xe0 (size before relaxing)
 .eh_frame      0x000000000002a140      0x1a0 build/cooja/mtype248.a(list.o)
                                        0x1cc (size before relaxing)
 .eh_frame      0x000000000002a2e0      0x188 build/cooja/mtype248.a(button-hal.o)
                                        0x1c8 (size before relaxing)
 .eh_frame      0x000000000002a468       0x6c build/cooja/mtype248.a(serial-line.o)
                                         0x98 (size before relaxing)
 .eh_frame      0x000000000002a4d4       0xfc build/cooja/mtype248.a(gpio-hal.o)
                                        0x13c (size before relaxing)
 .eh_frame      0x000000000002a5d0      0x1c0 build/cooja/mtype248.a(queuebuf.o)
                                        0x200 (size before relaxing)
 .eh_frame      0x000000000002a790      0x2b0 build/cooja/mtype248.a(packetbuf.o)
                                        0x2f0 (size before relaxing)
 .eh_frame      0x000000000002aa40       0x90 build/cooja/mtype248.a(netstack.o)
                                         0xd0 (size before relaxing)
 .eh_frame      0x000000000002aad0       0x64 build/cooja/mtype248.a(linkaddr.o)
                                         0x90 (size before relaxing)
 .eh_frame      0x000000000002ab34       0xf0 build/cooja/mtype248.a(csma.o)
                                        0x130 (size before relaxing)
 .eh_frame      0x000000000002ac24      0x1f8 build/cooja/mtype248.a(csma-output.o)
                                        0x238 (size before relaxing)
 .eh_frame      0x000000000002ae1c      0x1ac build/cooja/mtype248.a(uip-sr.o)
                                        0x1ec (size before relaxing)
 .eh_frame      0x000000000002afc8      0x364 build/cooja/mtype248.a(uip-ds6.o)
                                        0x3a4 (size before relaxing)
 .eh_frame      0x000000000002b32c      0x260 build/cooja/mtype248.a(uip-ds6-route.o)
                                        0x2a0 (size before relaxing)
 .eh_frame      0x000000000002b58c      0x1a8 build/cooja/mtype248.a(psock.o)
                                        0x1fc (size before relaxing)
 .eh_frame      0x000000000002b734      0x350 build/cooja/mtype248.a(tcpip.o)
                                        0x390 (size before relaxing)
 .eh_frame      0x000000000002ba84      0x2e8 build/cooja/mtype248.a(uip6.o)
                                        0x33c (size before relaxing)
 .eh_frame      0x000000000002bd6c      0x1e8 build/cooja/mtype248.a(uip-ds6-nbr.o)
                                        0x228 (size before relaxing)
 .eh_frame      0x000000000002bf54       0x8c build/cooja/mtype248.a(uip-nd6.o)
                                         0xe0 (size before relaxing)
 .eh_frame      0x000000000002bfe0      0x354 build/cooja/mtype248.a(sicslowpan.o)
                                        0x3a8 (size before relaxing)
 .eh_frame      0x000000000002c334       0x9c build/cooja/mtype248.a(uiplib.o)
                                         0xdc (size before relaxing)
 .eh_frame      0x000000000002c3d0      0x1fc build/cooja/mtype248.a(rpl.o)
                                        0x23c (size before relaxing)
 .eh_frame      0x000000000002c5cc      0x1f0 build/cooja/mtype248.a(rpl-icmp6.o)
                                        0x230 (size before relaxing)
 .eh_frame      0x000000000002c7bc       0xb0 build/cooja/mtype248.a(rpl-dag-root.o)
                                         0xf0 (size before relaxing)
 .eh_frame      0x000000000002c86c       0x90 build/cooja/mtype248.a(slip-bridge.o)
                                         0xbc (size before relaxing)
 .eh_frame      0x000000000002c8fc       0xf0 build/cooja/mtype248.a(slip.o)
                                        0x130 (size before relaxing)
 .eh_frame      0x000000000002c9ec       0xa4 build/cooja/mtype248.a(watchdog.o)
                                         0xd0 (size before relaxing)
 .eh_frame      0x000000000002ca90       0x80 build/cooja/mtype248.a(int-master.o)
                                         0xac (size before relaxing)
 .eh_frame      0x000000000002cb10       0x24 build/cooja/mtype248.a(slip-arch.o)
                                         0x50 (size before relaxing)
 .eh_frame      0x000000000002cb34       0xf8 build/cooja/mtype248.a(httpd-simple.o)
                                        0x138 (size before relaxing)
 .eh_frame      0x000000000002cc2c       0x6c build/cooja/mtype248.a(rpl-border-rout)
                                         0xac (size before relaxing)
 .eh_frame      0x000000000002cc98       0xd8 build/cooja/mtype248.a(stimer.o)
                                        0x104 (size before relaxing)
 .eh_frame      0x000000000002cd70       0xa0 build/cooja/mtype248.a(ringbuf.o)
                                         0xcc (size before relaxing)
 .eh_frame      0x000000000002ce10       0xa4 build/cooja/mtype248.a(memb.o)
                                         0xe4 (size before relaxing)
 .eh_frame      0x000000000002ceb4       0x24 build/cooja/mtype248.a(assert.o)
                                         0x50 (size before relaxing)
 .eh_frame      0x000000000002ced8      0x428 build/cooja/mtype248.a(nbr-table.o)
                                        0x468 (size before relaxing)
 .eh_frame      0x000000000002d300      0x140 build/cooja/mtype248.a(link-stats.o)
                                        0x180 (size before relaxing)
 .eh_frame      0x000000000002d440       0x50 build/cooja/mtype248.a(mac-sequence.o)
                                         0x7c (size before relaxing)
 .eh_frame      0x000000000002d490       0x20 build/cooja/mtype248.a(mac.o)
                                         0x4c (size before relaxing)
 .eh_frame      0x000000000002d4b0       0xb4 build/cooja/mtype248.a(framer-802154.o)
                                         0xf4 (size before relaxing)
 .eh_frame      0x000000000002d564      0x1b0 build/cooja/mtype248.a(frame802154.o)
                                        0x1f0 (size before relaxing)
 .eh_frame      0x000000000002d714       0x44 build/cooja/mtype248.a(csma-security.o)
                                         0x84 (size before relaxing)
 .eh_frame      0x000000000002d758      0x204 build/cooja/mtype248.a(uipbuf.o)
                                        0x230 (size before relaxing)
 .eh_frame      0x000000000002d95c      0x170 build/cooja/mtype248.a(uip-icmp6.o)
                                        0x1b0 (size before relaxing)
 .eh_frame      0x000000000002dacc       0xec build/cooja/mtype248.a(uip-packetqueue)
                                        0x12c (size before relaxing)
 .eh_frame      0x000000000002dbb8       0x48 build/cooja/mtype248.a(rpl-nbr-policy.)
                                         0x88 (size before relaxing)
 .eh_frame      0x000000000002dc00      0x2ec build/cooja/mtype248.a(rpl-neighbor.o)
                                        0x340 (size before relaxing)
 .eh_frame      0x000000000002deec      0x3c0 build/cooja/mtype248.a(rpl-dag.o)
                                        0x414 (size before relaxing)
 .eh_frame      0x000000000002e2ac      0x418 build/cooja/mtype248.a(rpl-timers.o)
                                        0x458 (size before relaxing)
 .eh_frame      0x000000000002e6c4      0x144 build/cooja/mtype248.a(rpl-ext-header.)
                                        0x184 (size before relaxing)
 .eh_frame      0x000000000002e808      0x150 build/cooja/mtype248.a(rpl-mrhof.o)
                                        0x190 (size before relaxing)
 .eh_frame      0x000000000002e958       0x24 build/cooja/mtype248.a(border-router-e)
                                         0x50 (size before relaxing)
 .eh_frame      0x000000000002e97c       0x1c /usr/lib/i386-linux-gnu/libc_nonshared.a(stack_chk_fail_local.oS)
                                         0x48 (size before relaxing)
 .eh_frame      0x000000000002e998        0x4 /usr/lib/gcc/i686-linux-gnu/7/crtendS.o
 *(.eh_frame.*)

.gcc_except_table
 *(.gcc_except_table .gcc_except_table.*)

.gnu_extab
 *(.gnu_extab*)

.exception_ranges
 *(.exception_ranges .exception_ranges*)
                0x000000000002fbf8                . = DATA_SEGMENT_ALIGN (CONSTANT (MAXPAGESIZE), CONSTANT (COMMONPAGESIZE))

.eh_frame
 *(.eh_frame)
 *(.eh_frame.*)

.gnu_extab
 *(.gnu_extab)

.gcc_except_table
 *(.gcc_except_table .gcc_except_table.*)

.exception_ranges
 *(.exception_ranges .exception_ranges*)

.tdata
 *(.tdata .tdata.* .gnu.linkonce.td.*)

.tbss
 *(.tbss .tbss.* .gnu.linkonce.tb.*)
 *(.tcommon)

.preinit_array
 *(.preinit_array)

.init_array     0x000000000002fbf8        0x4
 *(SORT_BY_INIT_PRIORITY(.init_array.*) SORT_BY_INIT_PRIORITY(.ctors.*))
 *(.init_array EXCLUDE_FILE(*crtend?.o *crtend.o *crtbegin?.o *crtbegin.o) .ctors)
 .init_array    0x000000000002fbf8        0x4 /usr/lib/gcc/i686-linux-gnu/7/crtbeginS.o

.fini_array     0x000000000002fbfc        0x4
 *(SORT_BY_INIT_PRIORITY(.fini_array.*) SORT_BY_INIT_PRIORITY(.dtors.*))
 *(.fini_array EXCLUDE_FILE(*crtend?.o *crtend.o *crtbegin?.o *crtbegin.o) .dtors)
 .fini_array    0x000000000002fbfc        0x4 /usr/lib/gcc/i686-linux-gnu/7/crtbeginS.o

.ctors
 *crtbegin.o(.ctors)
 *crtbegin?.o(.ctors)
 *(EXCLUDE_FILE(*crtend?.o *crtend.o) .ctors)
 *(SORT_BY_NAME(.ctors.*))
 *(.ctors)

.dtors
 *crtbegin.o(.dtors)
 *crtbegin?.o(.dtors)
 *(EXCLUDE_FILE(*crtend?.o *crtend.o) .dtors)
 *(SORT_BY_NAME(.dtors.*))
 *(.dtors)

.jcr
 *(.jcr)

.data.rel.ro    0x000000000002fc00      0x198
 *(.data.rel.ro.local* .gnu.linkonce.d.rel.ro.local.*)
 .data.rel.ro.local
                0x000000000002fc00        0x8 border-router.o
                0x000000000002fc00                autostart_processes
 .data.rel.ro.local
                0x000000000002fc08        0x8 build/cooja/mtype248.a(beep.o)
                0x000000000002fc08                beep_interface
 .data.rel.ro.local
                0x000000000002fc10        0x8 build/cooja/mtype248.a(leds-arch.o)
                0x000000000002fc10                leds_interface
 .data.rel.ro.local
                0x000000000002fc18        0x8 build/cooja/mtype248.a(moteid.o)
                0x000000000002fc18                moteid_interface
 .data.rel.ro.local
                0x000000000002fc20       0x18 build/cooja/mtype248.a(pir-sensor.o)
                0x000000000002fc20                pir_interface
                0x000000000002fc28                pir_sensor
 .data.rel.ro.local
                0x000000000002fc38        0x8 build/cooja/mtype248.a(rs232.o)
                0x000000000002fc38                rs232_interface
 .data.rel.ro.local
                0x000000000002fc40       0x18 build/cooja/mtype248.a(vib-sensor.o)
                0x000000000002fc40                vib_interface
                0x000000000002fc48                vib_sensor
 .data.rel.ro.local
                0x000000000002fc58        0x8 build/cooja/mtype248.a(clock.o)
                0x000000000002fc58                clock_interface
 .data.rel.ro.local
                0x000000000002fc60        0x8 build/cooja/mtype248.a(cooja-log.o)
                0x000000000002fc60                simlog_interface
 .data.rel.ro.local
                0x000000000002fc68        0x8 build/cooja/mtype248.a(cfs-cooja.o)
                0x000000000002fc68                cfs_interface
 *fill*         0x000000000002fc70       0x10 
 .data.rel.ro.local
                0x000000000002fc80       0x58 build/cooja/mtype248.a(cooja-radio.o)
                0x000000000002fc80                radio_interface
                0x000000000002fca0                cooja_radio_driver
 .data.rel.ro.local
                0x000000000002fcd8        0x8 build/cooja/mtype248.a(eeprom.o)
                0x000000000002fcd8                eeprom_interface
 .data.rel.ro.local
                0x000000000002fce0       0x18 build/cooja/mtype248.a(buttons.o)
                0x000000000002fce0                button_interface
                0x000000000002fce8                button_sensor
 .data.rel.ro.local
                0x000000000002fcf8       0x1c build/cooja/mtype248.a(csma.o)
                0x000000000002fcf8                csma_driver
 .data.rel.ro.local
                0x000000000002fd14       0x10 build/cooja/mtype248.a(sicslowpan.o)
                0x000000000002fd14                sicslowpan_driver
 .data.rel.ro.local
                0x000000000002fd24        0x8 build/cooja/mtype248.a(slip-bridge.o)
                0x000000000002fd24                rpl_interface
 .data.rel.ro.local
                0x000000000002fd2c        0xc build/cooja/mtype248.a(framer-802154.o)
                0x000000000002fd2c                framer_802154
 *(.data.rel.ro .data.rel.ro.* .gnu.linkonce.d.rel.ro.*)
 .data.rel.ro   0x000000000002fd38        0x0 /usr/lib/gcc/i686-linux-gnu/7/../../../i386-linux-gnu/crti.o
 *fill*         0x000000000002fd38        0x8 
 .data.rel.ro   0x000000000002fd40       0x54 build/cooja/mtype248.a(rpl.o)
                0x000000000002fd40                rpl_lite_driver
 .data.rel.ro   0x000000000002fd94        0x4 build/cooja/mtype248.a(rpl-dag.o)

.dynamic        0x000000000002fd98       0xf0
 *(.dynamic)
 .dynamic       0x000000000002fd98       0xf0 /usr/lib/gcc/i686-linux-gnu/7/../../../i386-linux-gnu/crti.o
                0x000000000002fd98                _DYNAMIC

.got            0x000000000002fe88      0x16c
 *(.got)
 .got           0x000000000002fe88      0x16c /usr/lib/gcc/i686-linux-gnu/7/../../../i386-linux-gnu/crti.o
 *(.igot)
                0x000000000002fff4                . = DATA_SEGMENT_RELRO_END (., (SIZEOF (.got.plt) >= 0xc)?0xc:0x0)

.got.plt        0x0000000000030000      0x504
 *(.got.plt)
 .got.plt       0x0000000000030000      0x504 /usr/lib/gcc/i686-linux-gnu/7/../../../i386-linux-gnu/crti.o
                0x0000000000030000                _GLOBAL_OFFSET_TABLE_
 *(.igot.plt)

.data           0x0000000000030520      0x3b4
 *(.data .data.* .gnu.linkonce.d.*)
 .data          0x0000000000030520        0x0 /usr/lib/gcc/i686-linux-gnu/7/../../../i386-linux-gnu/crti.o
 .data          0x0000000000030520        0x0 /usr/lib/gcc/i686-linux-gnu/7/crtbeginS.o
 .data.rel.local
                0x0000000000030520        0x4 /usr/lib/gcc/i686-linux-gnu/7/crtbeginS.o
                0x0000000000030520                __dso_handle
 .data          0x0000000000030524        0x0 border-router.o
 .data.rel.local
                0x0000000000030524       0x10 border-router.o
                0x0000000000030524                contiki_ng_br
 .data          0x0000000000030534        0x0 build/cooja/mtype248.o
 *fill*         0x0000000000030534        0xc 
 .data.rel      0x0000000000030540       0x44 build/cooja/mtype248.o
                0x0000000000030540                simInterfaces
                0x0000000000030574                sensors
 .data          0x0000000000030584        0x0 build/cooja/mtype248.a(simEnvChange.o)
 .data          0x0000000000030584        0x0 build/cooja/mtype248.a(cooja_mt.o)
 .data          0x0000000000030584        0x0 build/cooja/mtype248.a(cooja_mtarch.o)
 .data          0x0000000000030584        0x0 build/cooja/mtype248.a(rtimer-arch.o)
 .data          0x0000000000030584        0x0 build/cooja/mtype248.a(beep.o)
 .data          0x0000000000030584        0x0 build/cooja/mtype248.a(leds-arch.o)
 .data          0x0000000000030584        0x0 build/cooja/mtype248.a(moteid.o)
 .data          0x0000000000030584        0x0 build/cooja/mtype248.a(pir-sensor.o)
 .data          0x0000000000030584        0x0 build/cooja/mtype248.a(rs232.o)
 .data          0x0000000000030584        0x0 build/cooja/mtype248.a(vib-sensor.o)
 .data          0x0000000000030584        0x0 build/cooja/mtype248.a(clock.o)
 .data          0x0000000000030584        0x0 build/cooja/mtype248.a(cooja-log.o)
 .data          0x0000000000030584        0x0 build/cooja/mtype248.a(cfs-cooja.o)
 .data          0x0000000000030584       0x20 build/cooja/mtype248.a(cooja-radio.o)
                0x0000000000030584                simRadioHWOn
                0x0000000000030588                simSignalStrength
                0x000000000003058c                simLastSignalStrength
                0x0000000000030590                simPower
                0x0000000000030594                simRadioChannel
                0x0000000000030598                simLQI
                0x000000000003059c                simLastLQI
 .data.rel.local
                0x00000000000305a4       0x10 build/cooja/mtype248.a(cooja-radio.o)
                0x00000000000305a4                cooja_radio_process
 .data          0x00000000000305b4        0x0 build/cooja/mtype248.a(eeprom.o)
 .data          0x00000000000305b4        0x0 build/cooja/mtype248.a(random.o)
 .data          0x00000000000305b4        0x0 build/cooja/mtype248.a(sensors.o)
 .data.rel.local
                0x00000000000305b4       0x10 build/cooja/mtype248.a(sensors.o)
                0x00000000000305b4                sensors_process
 .data          0x00000000000305c4        0x0 build/cooja/mtype248.a(leds.o)
 .data          0x00000000000305c4        0x0 build/cooja/mtype248.a(gpio-hal-arch.o)
 .data          0x00000000000305c4        0x1 build/cooja/mtype248.a(buttons.o)
                0x00000000000305c4                simButtonIsActive
 *fill*         0x00000000000305c5       0x1b 
 .data.rel.local
                0x00000000000305e0       0x58 build/cooja/mtype248.a(buttons.o)
                0x0000000000030630                button_hal_buttons
 .data          0x0000000000030638        0x0 build/cooja/mtype248.a(webserver.o)
 .data.rel.local
                0x0000000000030638       0x18 build/cooja/mtype248.a(webserver.o)
                0x0000000000030640                webserver_nogui_process
 .data          0x0000000000030650        0x0 build/cooja/mtype248.a(contiki-main.o)
 .data          0x0000000000030650        0x0 build/cooja/mtype248.a(autostart.o)
 .data          0x0000000000030650        0x0 build/cooja/mtype248.a(ctimer.o)
 .data.rel.local
                0x0000000000030650       0x14 build/cooja/mtype248.a(ctimer.o)
                0x0000000000030654                ctimer_process
 .data          0x0000000000030664        0x4 build/cooja/mtype248.a(log.o)
                0x0000000000030664                curr_log_level_main
 *fill*         0x0000000000030668       0x18 
 .data.rel.local
                0x0000000000030680       0x9c build/cooja/mtype248.a(log.o)
                0x0000000000030680                all_modules
 .data          0x000000000003071c        0x0 build/cooja/mtype248.a(energest.o)
 .data          0x000000000003071c        0x0 build/cooja/mtype248.a(etimer.o)
 .data.rel.local
                0x000000000003071c       0x10 build/cooja/mtype248.a(etimer.o)
                0x000000000003071c                etimer_process
 .data          0x000000000003072c        0x0 build/cooja/mtype248.a(node-id.o)
 .data          0x000000000003072c        0x0 build/cooja/mtype248.a(rtimer.o)
 .data          0x000000000003072c        0x0 build/cooja/mtype248.a(process.o)
 .data          0x000000000003072c        0x0 build/cooja/mtype248.a(timer.o)
 .data          0x000000000003072c        0x0 build/cooja/mtype248.a(list.o)
 .data          0x000000000003072c        0x0 build/cooja/mtype248.a(button-hal.o)
 .data.rel.local
                0x000000000003072c       0x10 build/cooja/mtype248.a(button-hal.o)
                0x000000000003072c                button_hal_process
 .data          0x000000000003073c        0x0 build/cooja/mtype248.a(serial-line.o)
 .data.rel.local
                0x000000000003073c       0x10 build/cooja/mtype248.a(serial-line.o)
                0x000000000003073c                serial_line_process
 .data          0x000000000003074c        0x0 build/cooja/mtype248.a(gpio-hal.o)
 .data.rel.local
                0x000000000003074c        0x4 build/cooja/mtype248.a(gpio-hal.o)
 .data          0x0000000000030750        0x0 build/cooja/mtype248.a(queuebuf.o)
 .data.rel.local
                0x0000000000030750       0x18 build/cooja/mtype248.a(queuebuf.o)
 .data          0x0000000000030768        0x0 build/cooja/mtype248.a(packetbuf.o)
 .data.rel.local
                0x0000000000030768        0x4 build/cooja/mtype248.a(packetbuf.o)
 .data          0x000000000003076c        0x0 build/cooja/mtype248.a(netstack.o)
 .data.rel.local
                0x000000000003076c        0x4 build/cooja/mtype248.a(netstack.o)
 .data          0x0000000000030770        0x0 build/cooja/mtype248.a(linkaddr.o)
 .data          0x0000000000030770        0x0 build/cooja/mtype248.a(csma.o)
 .data          0x0000000000030770        0x0 build/cooja/mtype248.a(csma-output.o)
 .data.rel.local
                0x0000000000030770       0x28 build/cooja/mtype248.a(csma-output.o)
 .data          0x0000000000030798        0x0 build/cooja/mtype248.a(uip-sr.o)
 .data.rel.local
                0x0000000000030798       0x10 build/cooja/mtype248.a(uip-sr.o)
 .data          0x00000000000307a8        0x0 build/cooja/mtype248.a(uip-ds6.o)
 .data          0x00000000000307a8        0x0 build/cooja/mtype248.a(uip-ds6-route.o)
 .data.rel.local
                0x00000000000307a8       0x10 build/cooja/mtype248.a(uip-ds6-route.o)
 .data          0x00000000000307b8        0x0 build/cooja/mtype248.a(psock.o)
 .data          0x00000000000307b8        0x0 build/cooja/mtype248.a(tcpip.o)
 .data.rel.local
                0x00000000000307b8       0x10 build/cooja/mtype248.a(tcpip.o)
                0x00000000000307b8                tcpip_process
 .data          0x00000000000307c8        0x0 build/cooja/mtype248.a(uip6.o)
 .data          0x00000000000307c8        0x0 build/cooja/mtype248.a(uip-ds6-nbr.o)
 .data.rel.local
                0x00000000000307c8       0x14 build/cooja/mtype248.a(uip-ds6-nbr.o)
 .data          0x00000000000307dc        0x0 build/cooja/mtype248.a(uip-nd6.o)
 .data.rel.local
                0x00000000000307dc        0xc build/cooja/mtype248.a(uip-nd6.o)
 .data          0x00000000000307e8        0x0 build/cooja/mtype248.a(sicslowpan.o)
 .data          0x00000000000307e8        0x0 build/cooja/mtype248.a(uiplib.o)
 .data          0x00000000000307e8        0x0 build/cooja/mtype248.a(rpl.o)
 .data          0x00000000000307e8        0x0 build/cooja/mtype248.a(rpl-icmp6.o)
 .data.rel.local
                0x00000000000307e8       0x30 build/cooja/mtype248.a(rpl-icmp6.o)
 .data          0x0000000000030818        0x0 build/cooja/mtype248.a(rpl-dag-root.o)
 .data          0x0000000000030818        0x0 build/cooja/mtype248.a(slip-bridge.o)
 .data          0x0000000000030818        0x0 build/cooja/mtype248.a(slip.o)
 .data.rel.local
                0x0000000000030818       0x10 build/cooja/mtype248.a(slip.o)
                0x0000000000030818                slip_process
 .data          0x0000000000030828        0x0 build/cooja/mtype248.a(watchdog.o)
 .data          0x0000000000030828        0x0 build/cooja/mtype248.a(int-master.o)
 .data          0x0000000000030828        0x0 build/cooja/mtype248.a(slip-arch.o)
 .data          0x0000000000030828        0x0 build/cooja/mtype248.a(httpd-simple.o)
 .data.rel.local
                0x0000000000030828       0x10 build/cooja/mtype248.a(httpd-simple.o)
 .data          0x0000000000030838        0x0 build/cooja/mtype248.a(rpl-border-rout)
 .data          0x0000000000030838        0x0 build/cooja/mtype248.a(stimer.o)
 .data          0x0000000000030838        0x0 build/cooja/mtype248.a(ringbuf.o)
 .data          0x0000000000030838        0x0 build/cooja/mtype248.a(memb.o)
 .data          0x0000000000030838        0x0 build/cooja/mtype248.a(assert.o)
 .data          0x0000000000030838        0x0 build/cooja/mtype248.a(nbr-table.o)
 .data.rel.local
                0x0000000000030838       0x10 build/cooja/mtype248.a(nbr-table.o)
 .data          0x0000000000030848        0x0 build/cooja/mtype248.a(link-stats.o)
 .data.rel.local
                0x0000000000030848       0x14 build/cooja/mtype248.a(link-stats.o)
 .data          0x000000000003085c        0x0 build/cooja/mtype248.a(mac-sequence.o)
 .data          0x000000000003085c        0x0 build/cooja/mtype248.a(mac.o)
 .data          0x000000000003085c        0x0 build/cooja/mtype248.a(framer-802154.o)
 .data          0x000000000003085c        0x2 build/cooja/mtype248.a(frame802154.o)
 .data          0x000000000003085e        0x0 build/cooja/mtype248.a(csma-security.o)
 .data          0x000000000003085e        0x0 build/cooja/mtype248.a(uipbuf.o)
 .data          0x000000000003085e        0x0 build/cooja/mtype248.a(uip-icmp6.o)
 *fill*         0x000000000003085e        0x2 
 .data.rel.local
                0x0000000000030860       0x20 build/cooja/mtype248.a(uip-icmp6.o)
 .data          0x0000000000030880        0x0 build/cooja/mtype248.a(uip-packetqueue)
 .data.rel.local
                0x0000000000030880        0xc build/cooja/mtype248.a(uip-packetqueue)
 .data          0x000000000003088c        0x0 build/cooja/mtype248.a(rpl-nbr-policy.)
 .data          0x000000000003088c        0x0 build/cooja/mtype248.a(rpl-neighbor.o)
 .data.rel.local
                0x000000000003088c       0x14 build/cooja/mtype248.a(rpl-neighbor.o)
                0x000000000003089c                rpl_neighbors
 .data          0x00000000000308a0        0x0 build/cooja/mtype248.a(rpl-dag.o)
 .data          0x00000000000308a0        0x0 build/cooja/mtype248.a(rpl-timers.o)
 .data          0x00000000000308a0        0x0 build/cooja/mtype248.a(rpl-ext-header.)
 .data          0x00000000000308a0        0x0 build/cooja/mtype248.a(rpl-mrhof.o)
 .data.rel.local
                0x00000000000308a0       0x24 build/cooja/mtype248.a(rpl-mrhof.o)
                0x00000000000308a0                rpl_mrhof
 .data          0x00000000000308c4        0x0 build/cooja/mtype248.a(border-router-e)
 .data.rel.local
                0x00000000000308c4       0x10 build/cooja/mtype248.a(border-router-e)
                0x00000000000308c4                border_router_process
 .data          0x00000000000308d4        0x0 /usr/lib/i386-linux-gnu/libc_nonshared.a(stack_chk_fail_local.oS)
 .data          0x00000000000308d4        0x0 /usr/lib/gcc/i686-linux-gnu/7/crtendS.o
 .data          0x00000000000308d4        0x0 /usr/lib/gcc/i686-linux-gnu/7/../../../i386-linux-gnu/crtn.o

.tm_clone_table
                0x00000000000308d4        0x0
 .tm_clone_table
                0x00000000000308d4        0x0 /usr/lib/gcc/i686-linux-gnu/7/crtbeginS.o
 .tm_clone_table
                0x00000000000308d4        0x0 /usr/lib/gcc/i686-linux-gnu/7/crtendS.o

.data1
 *(.data1)
                0x00000000000308d4                _edata = .
                [!provide]                        PROVIDE (edata = .)
                0x00000000000308d4                . = .
                0x00000000000308d4                __bss_start = .

.bss            0x00000000000308e0    0x141c4
 *(.dynbss)
 .dynbss        0x00000000000308e0        0x0 /usr/lib/gcc/i686-linux-gnu/7/../../../i386-linux-gnu/crti.o
 *(.bss .bss.* .gnu.linkonce.b.*)
 .bss           0x00000000000308e0        0x0 /usr/lib/gcc/i686-linux-gnu/7/../../../i386-linux-gnu/crti.o
 .bss           0x00000000000308e0        0x1 /usr/lib/gcc/i686-linux-gnu/7/crtbeginS.o
 .bss           0x00000000000308e1        0x0 border-router.o
 *fill*         0x00000000000308e1       0x1f 
 .bss           0x0000000000030900     0x2040 build/cooja/mtype248.o
 .bss           0x0000000000032940        0x1 build/cooja/mtype248.a(simEnvChange.o)
                0x0000000000032940                simDontFallAsleep
 *fill*         0x0000000000032941        0x3 
 .bss           0x0000000000032944        0x4 build/cooja/mtype248.a(cooja_mt.o)
 .bss           0x0000000000032948        0x4 build/cooja/mtype248.a(cooja_mtarch.o)
 .bss           0x000000000003294c        0x0 build/cooja/mtype248.a(rtimer-arch.o)
 .bss           0x000000000003294c        0x0 build/cooja/mtype248.a(beep.o)
 .bss           0x000000000003294c        0x1 build/cooja/mtype248.a(leds-arch.o)
                0x000000000003294c                simLedsValue
 .bss           0x000000000003294d        0x0 build/cooja/mtype248.a(moteid.o)
 .bss           0x000000000003294d        0x1 build/cooja/mtype248.a(pir-sensor.o)
                0x000000000003294d                simPirValue
 *fill*         0x000000000003294e        0x2 
 .bss           0x0000000000032950        0x4 build/cooja/mtype248.a(rs232.o)
 .bss           0x0000000000032954        0x1 build/cooja/mtype248.a(vib-sensor.o)
                0x0000000000032954                simVibValue
 .bss           0x0000000000032955        0x0 build/cooja/mtype248.a(clock.o)
 *fill*         0x0000000000032955        0xb 
 .bss           0x0000000000032960     0x2020 build/cooja/mtype248.a(cooja-log.o)
 .bss           0x0000000000034980      0xfc0 build/cooja/mtype248.a(cfs-cooja.o)
                0x0000000000034980                simCFSData
                0x0000000000035920                simCFSSize
                0x0000000000035924                simCFSChanged
                0x0000000000035928                simCFSRead
                0x000000000003592c                simCFSWritten
 .bss           0x0000000000035940       0x24 build/cooja/mtype248.a(cooja-radio.o)
                0x0000000000035940                simReceiving
                0x0000000000035944                simInSize
                0x0000000000035948                simLastPacketTimestamp
                0x0000000000035950                simOutSize
 .bss           0x0000000000035964        0xc build/cooja/mtype248.a(eeprom.o)
                0x0000000000035964                simEEPROMChanged
                0x0000000000035968                simEEPROMRead
                0x000000000003596c                simEEPROMWritten
 .bss           0x0000000000035970        0x0 build/cooja/mtype248.a(random.o)
 .bss           0x0000000000035970        0xc build/cooja/mtype248.a(sensors.o)
 .bss           0x000000000003597c        0x0 build/cooja/mtype248.a(leds.o)
 .bss           0x000000000003597c       0x24 build/cooja/mtype248.a(gpio-hal-arch.o)
 .bss           0x00000000000359a0        0x0 build/cooja/mtype248.a(buttons.o)
 .bss           0x00000000000359a0      0x10c build/cooja/mtype248.a(webserver.o)
 .bss           0x0000000000035aac        0x0 build/cooja/mtype248.a(contiki-main.o)
 .bss           0x0000000000035aac        0x0 build/cooja/mtype248.a(autostart.o)
 .bss           0x0000000000035aac        0x5 build/cooja/mtype248.a(ctimer.o)
 *fill*         0x0000000000035ab1        0x3 
 .bss           0x0000000000035ab4       0x2c build/cooja/mtype248.a(log.o)
                0x0000000000035ab4                curr_log_level_rpl
                0x0000000000035ab8                curr_log_level_tcpip
                0x0000000000035abc                curr_log_level_ipv6
                0x0000000000035ac0                curr_log_level_6lowpan
                0x0000000000035ac4                curr_log_level_nullnet
                0x0000000000035ac8                curr_log_level_mac
                0x0000000000035acc                curr_log_level_framer
                0x0000000000035ad0                curr_log_level_6top
                0x0000000000035ad4                curr_log_level_coap
                0x0000000000035ad8                curr_log_level_snmp
                0x0000000000035adc                curr_log_level_lwm2m
 .bss           0x0000000000035ae0        0x0 build/cooja/mtype248.a(energest.o)
 .bss           0x0000000000035ae0        0x8 build/cooja/mtype248.a(etimer.o)
 .bss           0x0000000000035ae8        0x2 build/cooja/mtype248.a(node-id.o)
                0x0000000000035ae8                node_id
 *fill*         0x0000000000035aea        0x2 
 .bss           0x0000000000035aec        0x4 build/cooja/mtype248.a(rtimer.o)
 *fill*         0x0000000000035af0       0x10 
 .bss           0x0000000000035b00      0x1a1 build/cooja/mtype248.a(process.o)
                0x0000000000035b00                process_list
                0x0000000000035b04                process_current
 .bss           0x0000000000035ca1        0x0 build/cooja/mtype248.a(timer.o)
 .bss           0x0000000000035ca1        0x0 build/cooja/mtype248.a(list.o)
 *fill*         0x0000000000035ca1        0x3 
 .bss           0x0000000000035ca4       0x10 build/cooja/mtype248.a(button-hal.o)
 *fill*         0x0000000000035cb4        0xc 
 .bss           0x0000000000035cc0      0x140 build/cooja/mtype248.a(serial-line.o)
 .bss           0x0000000000035e00        0x4 build/cooja/mtype248.a(gpio-hal.o)
 *fill*         0x0000000000035e04       0x1c 
 .bss           0x0000000000035e20     0x2c80 build/cooja/mtype248.a(queuebuf.o)
 .bss           0x0000000000038aa0       0xa0 build/cooja/mtype248.a(packetbuf.o)
 .bss           0x0000000000038b40        0x4 build/cooja/mtype248.a(netstack.o)
 .bss           0x0000000000038b44        0x0 build/cooja/mtype248.a(linkaddr.o)
 .bss           0x0000000000038b44        0x0 build/cooja/mtype248.a(csma.o)
 *fill*         0x0000000000038b44       0x1c 
 .bss           0x0000000000038b60      0x726 build/cooja/mtype248.a(csma-output.o)
 *fill*         0x0000000000039286       0x1a 
 .bss           0x00000000000392a0     0x1d80 build/cooja/mtype248.a(uip-sr.o)
 .bss           0x000000000003b020       0x30 build/cooja/mtype248.a(uip-ds6.o)
 *fill*         0x000000000003b050       0x10 
 .bss           0x000000000003b060       0x60 build/cooja/mtype248.a(uip-ds6-route.o)
 .bss           0x000000000003b0c0        0x0 build/cooja/mtype248.a(psock.o)
 .bss           0x000000000003b0c0       0xc4 build/cooja/mtype248.a(tcpip.o)
 .bss           0x000000000003b184        0xc build/cooja/mtype248.a(uip6.o)
                0x000000000003b184                uip_ext_bitmap
                0x000000000003b186                uip_ext_len
                0x000000000003b188                uip_last_proto
 *fill*         0x000000000003b190       0x10 
 .bss           0x000000000003b1a0     0x1c20 build/cooja/mtype248.a(uip-ds6-nbr.o)
 .bss           0x000000000003cdc0       0x10 build/cooja/mtype248.a(uip-nd6.o)
 *fill*         0x000000000003cdd0       0x10 
 .bss           0x000000000003cde0      0x724 build/cooja/mtype248.a(sicslowpan.o)
 .bss           0x000000000003d504        0x0 build/cooja/mtype248.a(uiplib.o)
 .bss           0x000000000003d504        0x1 build/cooja/mtype248.a(rpl.o)
 .bss           0x000000000003d505        0x0 build/cooja/mtype248.a(rpl-icmp6.o)
 *fill*         0x000000000003d505        0x3 
 .bss           0x000000000003d508       0x11 build/cooja/mtype248.a(rpl-dag-root.o)
 *fill*         0x000000000003d519        0x3 
 .bss           0x000000000003d51c       0x10 build/cooja/mtype248.a(slip-bridge.o)
 *fill*         0x000000000003d52c       0x14 
 .bss           0x000000000003d540      0x538 build/cooja/mtype248.a(slip.o)
 .bss           0x000000000003da78        0x0 build/cooja/mtype248.a(watchdog.o)
 .bss           0x000000000003da78        0x4 build/cooja/mtype248.a(int-master.o)
 .bss           0x000000000003da7c        0x0 build/cooja/mtype248.a(slip-arch.o)
 *fill*         0x000000000003da7c        0x4 
 .bss           0x000000000003da80      0x110 build/cooja/mtype248.a(httpd-simple.o)
 .bss           0x000000000003db90        0x0 build/cooja/mtype248.a(rpl-border-rout)
 .bss           0x000000000003db90        0x0 build/cooja/mtype248.a(stimer.o)
 .bss           0x000000000003db90        0x0 build/cooja/mtype248.a(ringbuf.o)
 .bss           0x000000000003db90        0x0 build/cooja/mtype248.a(memb.o)
 .bss           0x000000000003db90        0x0 build/cooja/mtype248.a(assert.o)
 *fill*         0x000000000003db90       0x10 
 .bss           0x000000000003dba0     0x1214 build/cooja/mtype248.a(nbr-table.o)
 *fill*         0x000000000003edb4        0xc 
 .bss           0x000000000003edc0      0xe10 build/cooja/mtype248.a(link-stats.o)
 *fill*         0x000000000003fbd0       0x10 
 .bss           0x000000000003fbe0      0x100 build/cooja/mtype248.a(mac-sequence.o)
 .bss           0x000000000003fce0        0x0 build/cooja/mtype248.a(mac.o)
 .bss           0x000000000003fce0        0x2 build/cooja/mtype248.a(framer-802154.o)
 .bss           0x000000000003fce2        0x0 build/cooja/mtype248.a(frame802154.o)
 .bss           0x000000000003fce2        0x0 build/cooja/mtype248.a(csma-security.o)
 *fill*         0x000000000003fce2        0x2 
 .bss           0x000000000003fce4       0x20 build/cooja/mtype248.a(uipbuf.o)
 .bss           0x000000000003fd04       0x18 build/cooja/mtype248.a(uip-icmp6.o)
 *fill*         0x000000000003fd1c        0x4 
 .bss           0x000000000003fd20      0xa78 build/cooja/mtype248.a(uip-packetqueue)
 .bss           0x0000000000040798        0x0 build/cooja/mtype248.a(rpl-nbr-policy.)
 *fill*         0x0000000000040798        0x8 
 .bss           0x00000000000407a0      0x960 build/cooja/mtype248.a(rpl-neighbor.o)
 .bss           0x0000000000041100        0x0 build/cooja/mtype248.a(rpl-dag.o)
 .bss           0x0000000000041100       0x40 build/cooja/mtype248.a(rpl-timers.o)
 .bss           0x0000000000041140        0x0 build/cooja/mtype248.a(rpl-ext-header.)
 .bss           0x0000000000041140        0x0 build/cooja/mtype248.a(rpl-mrhof.o)
 .bss           0x0000000000041140       0x10 build/cooja/mtype248.a(border-router-e)
 .bss           0x0000000000041150        0x0 /usr/lib/i386-linux-gnu/libc_nonshared.a(stack_chk_fail_local.oS)
 .bss           0x0000000000041150        0x0 /usr/lib/gcc/i686-linux-gnu/7/crtendS.o
 .bss           0x0000000000041150        0x0 /usr/lib/gcc/i686-linux-gnu/7/../../../i386-linux-gnu/crtn.o
 *(COMMON)
 COMMON         0x0000000000041150        0x8 build/cooja/mtype248.o
                0x0000000000041150                referenceVar
                0x0000000000041154                sensors_flags
 COMMON         0x0000000000041158        0xc build/cooja/mtype248.a(simEnvChange.o)
                0x0000000000041158                simEtimerPending
                0x000000000004115c                simProcessRunValue
                0x0000000000041160                simEtimerNextExpirationTime
 *fill*         0x0000000000041164        0x4 
 COMMON         0x0000000000041168       0x18 build/cooja/mtype248.a(rtimer-arch.o)
                0x0000000000041168                simRtimerPending
                0x0000000000041170                simRtimerCurrentTicks
                0x0000000000041178                simRtimerNextExpirationTime
 COMMON         0x0000000000041180        0x1 build/cooja/mtype248.a(beep.o)
                0x0000000000041180                simBeeped
 *fill*         0x0000000000041181        0x3 
 COMMON         0x0000000000041184        0xc build/cooja/mtype248.a(moteid.o)
                0x0000000000041184                simRandomSeed
                0x0000000000041188                simMoteIDChanged
                0x000000000004118c                simMoteID
 COMMON         0x0000000000041190        0x2 build/cooja/mtype248.a(pir-sensor.o)
                0x0000000000041190                simPirIsActive
                0x0000000000041191                simPirChanged
 *fill*         0x0000000000041192        0xe 
 COMMON         0x00000000000411a0      0x820 build/cooja/mtype248.a(rs232.o)
                0x00000000000411a0                simSerialReceivingFlag
                0x00000000000411a4                simSerialReceivingLength
                0x00000000000411c0                simSerialReceivingData
 COMMON         0x00000000000419c0        0x2 build/cooja/mtype248.a(vib-sensor.o)
                0x00000000000419c0                simVibChanged
                0x00000000000419c1                simVibIsActive
 *fill*         0x00000000000419c2        0x2 
 COMMON         0x00000000000419c4        0x4 build/cooja/mtype248.a(clock.o)
                0x00000000000419c4                simCurrentTime
 *fill*         0x00000000000419c8       0x18 
 COMMON         0x00000000000419e0     0x2020 build/cooja/mtype248.a(cooja-log.o)
                0x00000000000419e0                simLoggedLength
                0x00000000000419e4                simLoggedFlag
                0x0000000000041a00                simLoggedData
 COMMON         0x0000000000043a00       0xfd build/cooja/mtype248.a(cooja-radio.o)
                0x0000000000043a00                simOutDataBuffer
                0x0000000000043a80                simInDataBuffer
 *fill*         0x0000000000043afd        0x3 
 COMMON         0x0000000000043b00      0x400 build/cooja/mtype248.a(eeprom.o)
                0x0000000000043b00                simEEPROMData
 COMMON         0x0000000000043f00        0x1 build/cooja/mtype248.a(sensors.o)
                0x0000000000043f00                sensors_event
 COMMON         0x0000000000043f01        0x2 build/cooja/mtype248.a(buttons.o)
                0x0000000000043f01                simButtonIsDown
                0x0000000000043f02                simButtonChanged
 COMMON         0x0000000000043f03        0x3 build/cooja/mtype248.a(button-hal.o)
                0x0000000000043f03                button_hal_periodic_event
                0x0000000000043f04                button_hal_press_event
                0x0000000000043f05                button_hal_release_event
 COMMON         0x0000000000043f06        0x1 build/cooja/mtype248.a(serial-line.o)
                0x0000000000043f06                serial_line_event_message
 *fill*         0x0000000000043f07        0x1 
 COMMON         0x0000000000043f08       0x2c build/cooja/mtype248.a(packetbuf.o)
                0x0000000000043f08                packetbuf_attrs
                0x0000000000043f24                packetbuf_addrs
 COMMON         0x0000000000043f34        0x8 build/cooja/mtype248.a(linkaddr.o)
                0x0000000000043f34                linkaddr_node_addr
 *fill*         0x0000000000043f3c        0x4 
 COMMON         0x0000000000043f40      0x1a5 build/cooja/mtype248.a(uip-ds6.o)
                0x0000000000043f40                uip_ds6_prefix_list
                0x0000000000043fa0                uip_ds6_timer_periodic
                0x0000000000043fb0                uip_ds6_netif_addr_list_offset
                0x0000000000043fc0                uip_ds6_if
                0x00000000000440dc                uip_ds6_timer_ra
                0x00000000000440e4                uip_ds6_addr_size
 COMMON         0x00000000000440e5        0x1 build/cooja/mtype248.a(tcpip.o)
                0x00000000000440e5                tcpip_event
 *fill*         0x00000000000440e6       0x1a 
 COMMON         0x0000000000044100      0x808 build/cooja/mtype248.a(uip6.o)
                0x0000000000044100                uip_slen
                0x0000000000044104                uip_acc32
                0x0000000000044120                uip_conns
                0x00000000000442a0                uip_lladdr
                0x00000000000442a8                uip_appdata
                0x00000000000442ac                uip_flags
                0x00000000000442c0                uip_aligned_buf
                0x00000000000447c0                uip_listenports
                0x00000000000447e8                uip_len
                0x00000000000447ec                uip_sappdata
                0x0000000000044800                uip_udp_conns
                0x0000000000044900                uip_udp_conn
                0x0000000000044904                uip_conn
 COMMON         0x0000000000044908       0x10 build/cooja/mtype248.a(rpl.o)
                0x0000000000044908                rpl_multicast_addr
 COMMON         0x0000000000044918        0x1 build/cooja/mtype248.a(rpl-border-rout)
                0x0000000000044918                prefix_set
 *fill*         0x0000000000044919        0x7 
 COMMON         0x0000000000044920       0x20 build/cooja/mtype248.a(link-stats.o)
                0x0000000000044920                periodic_timer
 COMMON         0x0000000000044940      0x164 build/cooja/mtype248.a(rpl-dag.o)
                0x0000000000044940                curr_instance
                0x0000000000044aa4                . = ALIGN ((. != 0x0)?0x4:0x1)
                0x0000000000044aa4                . = ALIGN (0x4)
                0x0000000000044aa4                . = SEGMENT_START ("ldata-segment", .)
                0x0000000000044aa4                . = ALIGN (0x4)
                0x0000000000044aa4                _end = .
                [!provide]                        PROVIDE (end = .)
                0x0000000000044aa4                . = DATA_SEGMENT_END (.)

.stab
 *(.stab)

.stabstr
 *(.stabstr)

.stab.excl
 *(.stab.excl)

.stab.exclstr
 *(.stab.exclstr)

.stab.index
 *(.stab.index)

.stab.indexstr
 *(.stab.indexstr)

.comment        0x0000000000000000       0x29
 *(.comment)
 .comment       0x0000000000000000       0x29 /usr/lib/gcc/i686-linux-gnu/7/crtbeginS.o
                                         0x2a (size before relaxing)
 .comment       0x0000000000000029       0x2a border-router.o
 .comment       0x0000000000000029       0x2a build/cooja/mtype248.o
 .comment       0x0000000000000029       0x2a build/cooja/mtype248.a(simEnvChange.o)
 .comment       0x0000000000000029       0x2a build/cooja/mtype248.a(cooja_mt.o)
 .comment       0x0000000000000029       0x2a build/cooja/mtype248.a(cooja_mtarch.o)
 .comment       0x0000000000000029       0x2a build/cooja/mtype248.a(rtimer-arch.o)
 .comment       0x0000000000000029       0x2a build/cooja/mtype248.a(beep.o)
 .comment       0x0000000000000029       0x2a build/cooja/mtype248.a(leds-arch.o)
 .comment       0x0000000000000029       0x2a build/cooja/mtype248.a(moteid.o)
 .comment       0x0000000000000029       0x2a build/cooja/mtype248.a(pir-sensor.o)
 .comment       0x0000000000000029       0x2a build/cooja/mtype248.a(rs232.o)
 .comment       0x0000000000000029       0x2a build/cooja/mtype248.a(vib-sensor.o)
 .comment       0x0000000000000029       0x2a build/cooja/mtype248.a(clock.o)
 .comment       0x0000000000000029       0x2a build/cooja/mtype248.a(cooja-log.o)
 .comment       0x0000000000000029       0x2a build/cooja/mtype248.a(cfs-cooja.o)
 .comment       0x0000000000000029       0x2a build/cooja/mtype248.a(cooja-radio.o)
 .comment       0x0000000000000029       0x2a build/cooja/mtype248.a(eeprom.o)
 .comment       0x0000000000000029       0x2a build/cooja/mtype248.a(random.o)
 .comment       0x0000000000000029       0x2a build/cooja/mtype248.a(sensors.o)
 .comment       0x0000000000000029       0x2a build/cooja/mtype248.a(leds.o)
 .comment       0x0000000000000029       0x2a build/cooja/mtype248.a(gpio-hal-arch.o)
 .comment       0x0000000000000029       0x2a build/cooja/mtype248.a(buttons.o)
 .comment       0x0000000000000029       0x2a build/cooja/mtype248.a(webserver.o)
 .comment       0x0000000000000029       0x2a build/cooja/mtype248.a(contiki-main.o)
 .comment       0x0000000000000029       0x2a build/cooja/mtype248.a(autostart.o)
 .comment       0x0000000000000029       0x2a build/cooja/mtype248.a(ctimer.o)
 .comment       0x0000000000000029       0x2a build/cooja/mtype248.a(log.o)
 .comment       0x0000000000000029       0x2a build/cooja/mtype248.a(energest.o)
 .comment       0x0000000000000029       0x2a build/cooja/mtype248.a(etimer.o)
 .comment       0x0000000000000029       0x2a build/cooja/mtype248.a(node-id.o)
 .comment       0x0000000000000029       0x2a build/cooja/mtype248.a(rtimer.o)
 .comment       0x0000000000000029       0x2a build/cooja/mtype248.a(process.o)
 .comment       0x0000000000000029       0x2a build/cooja/mtype248.a(timer.o)
 .comment       0x0000000000000029       0x2a build/cooja/mtype248.a(list.o)
 .comment       0x0000000000000029       0x2a build/cooja/mtype248.a(button-hal.o)
 .comment       0x0000000000000029       0x2a build/cooja/mtype248.a(serial-line.o)
 .comment       0x0000000000000029       0x2a build/cooja/mtype248.a(gpio-hal.o)
 .comment       0x0000000000000029       0x2a build/cooja/mtype248.a(queuebuf.o)
 .comment       0x0000000000000029       0x2a build/cooja/mtype248.a(packetbuf.o)
 .comment       0x0000000000000029       0x2a build/cooja/mtype248.a(netstack.o)
 .comment       0x0000000000000029       0x2a build/cooja/mtype248.a(linkaddr.o)
 .comment       0x0000000000000029       0x2a build/cooja/mtype248.a(csma.o)
 .comment       0x0000000000000029       0x2a build/cooja/mtype248.a(csma-output.o)
 .comment       0x0000000000000029       0x2a build/cooja/mtype248.a(uip-sr.o)
 .comment       0x0000000000000029       0x2a build/cooja/mtype248.a(uip-ds6.o)
 .comment       0x0000000000000029       0x2a build/cooja/mtype248.a(uip-ds6-route.o)
 .comment       0x0000000000000029       0x2a build/cooja/mtype248.a(psock.o)
 .comment       0x0000000000000029       0x2a build/cooja/mtype248.a(tcpip.o)
 .comment       0x0000000000000029       0x2a build/cooja/mtype248.a(uip6.o)
 .comment       0x0000000000000029       0x2a build/cooja/mtype248.a(uip-ds6-nbr.o)
 .comment       0x0000000000000029       0x2a build/cooja/mtype248.a(uip-nd6.o)
 .comment       0x0000000000000029       0x2a build/cooja/mtype248.a(sicslowpan.o)
 .comment       0x0000000000000029       0x2a build/cooja/mtype248.a(uiplib.o)
 .comment       0x0000000000000029       0x2a build/cooja/mtype248.a(rpl.o)
 .comment       0x0000000000000029       0x2a build/cooja/mtype248.a(rpl-icmp6.o)
 .comment       0x0000000000000029       0x2a build/cooja/mtype248.a(rpl-dag-root.o)
 .comment       0x0000000000000029       0x2a build/cooja/mtype248.a(slip-bridge.o)
 .comment       0x0000000000000029       0x2a build/cooja/mtype248.a(slip.o)
 .comment       0x0000000000000029       0x2a build/cooja/mtype248.a(watchdog.o)
 .comment       0x0000000000000029       0x2a build/cooja/mtype248.a(int-master.o)
 .comment       0x0000000000000029       0x2a build/cooja/mtype248.a(slip-arch.o)
 .comment       0x0000000000000029       0x2a build/cooja/mtype248.a(httpd-simple.o)
 .comment       0x0000000000000029       0x2a build/cooja/mtype248.a(rpl-border-rout)
 .comment       0x0000000000000029       0x2a build/cooja/mtype248.a(stimer.o)
 .comment       0x0000000000000029       0x2a build/cooja/mtype248.a(ringbuf.o)
 .comment       0x0000000000000029       0x2a build/cooja/mtype248.a(memb.o)
 .comment       0x0000000000000029       0x2a build/cooja/mtype248.a(assert.o)
 .comment       0x0000000000000029       0x2a build/cooja/mtype248.a(nbr-table.o)
 .comment       0x0000000000000029       0x2a build/cooja/mtype248.a(link-stats.o)
 .comment       0x0000000000000029       0x2a build/cooja/mtype248.a(mac-sequence.o)
 .comment       0x0000000000000029       0x2a build/cooja/mtype248.a(mac.o)
 .comment       0x0000000000000029       0x2a build/cooja/mtype248.a(framer-802154.o)
 .comment       0x0000000000000029       0x2a build/cooja/mtype248.a(frame802154.o)
 .comment       0x0000000000000029       0x2a build/cooja/mtype248.a(csma-security.o)
 .comment       0x0000000000000029       0x2a build/cooja/mtype248.a(uipbuf.o)
 .comment       0x0000000000000029       0x2a build/cooja/mtype248.a(uip-icmp6.o)
 .comment       0x0000000000000029       0x2a build/cooja/mtype248.a(uip-packetqueue)
 .comment       0x0000000000000029       0x2a build/cooja/mtype248.a(rpl-nbr-policy.)
 .comment       0x0000000000000029       0x2a build/cooja/mtype248.a(rpl-neighbor.o)
 .comment       0x0000000000000029       0x2a build/cooja/mtype248.a(rpl-dag.o)
 .comment       0x0000000000000029       0x2a build/cooja/mtype248.a(rpl-timers.o)
 .comment       0x0000000000000029       0x2a build/cooja/mtype248.a(rpl-ext-header.)
 .comment       0x0000000000000029       0x2a build/cooja/mtype248.a(rpl-mrhof.o)
 .comment       0x0000000000000029       0x2a build/cooja/mtype248.a(border-router-e)
 .comment       0x0000000000000029       0x2a /usr/lib/gcc/i686-linux-gnu/7/crtendS.o

.debug
 *(.debug)

.line
 *(.line)

.debug_srcinfo
 *(.debug_srcinfo)

.debug_sfnames
 *(.debug_sfnames)

.debug_aranges  0x0000000000000000      0xa80
 *(.debug_aranges)
 .debug_aranges
                0x0000000000000000       0x20 border-router.o
 .debug_aranges
                0x0000000000000020       0x20 build/cooja/mtype248.o
 .debug_aranges
                0x0000000000000040       0x20 build/cooja/mtype248.a(simEnvChange.o)
 .debug_aranges
                0x0000000000000060       0x20 build/cooja/mtype248.a(cooja_mt.o)
 .debug_aranges
                0x0000000000000080       0x20 build/cooja/mtype248.a(cooja_mtarch.o)
 .debug_aranges
                0x00000000000000a0       0x20 build/cooja/mtype248.a(rtimer-arch.o)
 .debug_aranges
                0x00000000000000c0       0x20 build/cooja/mtype248.a(beep.o)
 .debug_aranges
                0x00000000000000e0       0x20 build/cooja/mtype248.a(leds-arch.o)
 .debug_aranges
                0x0000000000000100       0x20 build/cooja/mtype248.a(moteid.o)
 .debug_aranges
                0x0000000000000120       0x20 build/cooja/mtype248.a(pir-sensor.o)
 .debug_aranges
                0x0000000000000140       0x20 build/cooja/mtype248.a(rs232.o)
 .debug_aranges
                0x0000000000000160       0x20 build/cooja/mtype248.a(vib-sensor.o)
 .debug_aranges
                0x0000000000000180       0x20 build/cooja/mtype248.a(clock.o)
 .debug_aranges
                0x00000000000001a0       0x20 build/cooja/mtype248.a(cooja-log.o)
 .debug_aranges
                0x00000000000001c0       0x20 build/cooja/mtype248.a(cfs-cooja.o)
 .debug_aranges
                0x00000000000001e0       0x20 build/cooja/mtype248.a(cooja-radio.o)
 .debug_aranges
                0x0000000000000200       0x20 build/cooja/mtype248.a(eeprom.o)
 .debug_aranges
                0x0000000000000220       0x20 build/cooja/mtype248.a(random.o)
 .debug_aranges
                0x0000000000000240       0x20 build/cooja/mtype248.a(sensors.o)
 .debug_aranges
                0x0000000000000260       0x20 build/cooja/mtype248.a(leds.o)
 .debug_aranges
                0x0000000000000280       0x20 build/cooja/mtype248.a(gpio-hal-arch.o)
 .debug_aranges
                0x00000000000002a0       0x20 build/cooja/mtype248.a(buttons.o)
 .debug_aranges
                0x00000000000002c0       0x20 build/cooja/mtype248.a(webserver.o)
 .debug_aranges
                0x00000000000002e0       0x20 build/cooja/mtype248.a(contiki-main.o)
 .debug_aranges
                0x0000000000000300       0x20 build/cooja/mtype248.a(autostart.o)
 .debug_aranges
                0x0000000000000320       0x20 build/cooja/mtype248.a(ctimer.o)
 .debug_aranges
                0x0000000000000340       0x20 build/cooja/mtype248.a(log.o)
 .debug_aranges
                0x0000000000000360       0x20 build/cooja/mtype248.a(energest.o)
 .debug_aranges
                0x0000000000000380       0x20 build/cooja/mtype248.a(etimer.o)
 .debug_aranges
                0x00000000000003a0       0x20 build/cooja/mtype248.a(node-id.o)
 .debug_aranges
                0x00000000000003c0       0x20 build/cooja/mtype248.a(rtimer.o)
 .debug_aranges
                0x00000000000003e0       0x20 build/cooja/mtype248.a(process.o)
 .debug_aranges
                0x0000000000000400       0x20 build/cooja/mtype248.a(timer.o)
 .debug_aranges
                0x0000000000000420       0x20 build/cooja/mtype248.a(list.o)
 .debug_aranges
                0x0000000000000440       0x20 build/cooja/mtype248.a(button-hal.o)
 .debug_aranges
                0x0000000000000460       0x20 build/cooja/mtype248.a(serial-line.o)
 .debug_aranges
                0x0000000000000480       0x20 build/cooja/mtype248.a(gpio-hal.o)
 .debug_aranges
                0x00000000000004a0       0x20 build/cooja/mtype248.a(queuebuf.o)
 .debug_aranges
                0x00000000000004c0       0x20 build/cooja/mtype248.a(packetbuf.o)
 .debug_aranges
                0x00000000000004e0       0x20 build/cooja/mtype248.a(netstack.o)
 .debug_aranges
                0x0000000000000500       0x20 build/cooja/mtype248.a(linkaddr.o)
 .debug_aranges
                0x0000000000000520       0x20 build/cooja/mtype248.a(csma.o)
 .debug_aranges
                0x0000000000000540       0x20 build/cooja/mtype248.a(csma-output.o)
 .debug_aranges
                0x0000000000000560       0x20 build/cooja/mtype248.a(uip-sr.o)
 .debug_aranges
                0x0000000000000580       0x20 build/cooja/mtype248.a(uip-ds6.o)
 .debug_aranges
                0x00000000000005a0       0x20 build/cooja/mtype248.a(uip-ds6-route.o)
 .debug_aranges
                0x00000000000005c0       0x20 build/cooja/mtype248.a(psock.o)
 .debug_aranges
                0x00000000000005e0       0x20 build/cooja/mtype248.a(tcpip.o)
 .debug_aranges
                0x0000000000000600       0x20 build/cooja/mtype248.a(uip6.o)
 .debug_aranges
                0x0000000000000620       0x20 build/cooja/mtype248.a(uip-ds6-nbr.o)
 .debug_aranges
                0x0000000000000640       0x20 build/cooja/mtype248.a(uip-nd6.o)
 .debug_aranges
                0x0000000000000660       0x20 build/cooja/mtype248.a(sicslowpan.o)
 .debug_aranges
                0x0000000000000680       0x20 build/cooja/mtype248.a(uiplib.o)
 .debug_aranges
                0x00000000000006a0       0x20 build/cooja/mtype248.a(rpl.o)
 .debug_aranges
                0x00000000000006c0       0x20 build/cooja/mtype248.a(rpl-icmp6.o)
 .debug_aranges
                0x00000000000006e0       0x20 build/cooja/mtype248.a(rpl-dag-root.o)
 .debug_aranges
                0x0000000000000700       0x20 build/cooja/mtype248.a(slip-bridge.o)
 .debug_aranges
                0x0000000000000720       0x20 build/cooja/mtype248.a(slip.o)
 .debug_aranges
                0x0000000000000740       0x20 build/cooja/mtype248.a(watchdog.o)
 .debug_aranges
                0x0000000000000760       0x20 build/cooja/mtype248.a(int-master.o)
 .debug_aranges
                0x0000000000000780       0x20 build/cooja/mtype248.a(slip-arch.o)
 .debug_aranges
                0x00000000000007a0       0x20 build/cooja/mtype248.a(httpd-simple.o)
 .debug_aranges
                0x00000000000007c0       0x20 build/cooja/mtype248.a(rpl-border-rout)
 .debug_aranges
                0x00000000000007e0       0x20 build/cooja/mtype248.a(stimer.o)
 .debug_aranges
                0x0000000000000800       0x20 build/cooja/mtype248.a(ringbuf.o)
 .debug_aranges
                0x0000000000000820       0x20 build/cooja/mtype248.a(memb.o)
 .debug_aranges
                0x0000000000000840       0x20 build/cooja/mtype248.a(assert.o)
 .debug_aranges
                0x0000000000000860       0x20 build/cooja/mtype248.a(nbr-table.o)
 .debug_aranges
                0x0000000000000880       0x20 build/cooja/mtype248.a(link-stats.o)
 .debug_aranges
                0x00000000000008a0       0x20 build/cooja/mtype248.a(mac-sequence.o)
 .debug_aranges
                0x00000000000008c0       0x20 build/cooja/mtype248.a(mac.o)
 .debug_aranges
                0x00000000000008e0       0x20 build/cooja/mtype248.a(framer-802154.o)
 .debug_aranges
                0x0000000000000900       0x20 build/cooja/mtype248.a(frame802154.o)
 .debug_aranges
                0x0000000000000920       0x20 build/cooja/mtype248.a(csma-security.o)
 .debug_aranges
                0x0000000000000940       0x20 build/cooja/mtype248.a(uipbuf.o)
 .debug_aranges
                0x0000000000000960       0x20 build/cooja/mtype248.a(uip-icmp6.o)
 .debug_aranges
                0x0000000000000980       0x20 build/cooja/mtype248.a(uip-packetqueue)
 .debug_aranges
                0x00000000000009a0       0x20 build/cooja/mtype248.a(rpl-nbr-policy.)
 .debug_aranges
                0x00000000000009c0       0x20 build/cooja/mtype248.a(rpl-neighbor.o)
 .debug_aranges
                0x00000000000009e0       0x20 build/cooja/mtype248.a(rpl-dag.o)
 .debug_aranges
                0x0000000000000a00       0x20 build/cooja/mtype248.a(rpl-timers.o)
 .debug_aranges
                0x0000000000000a20       0x20 build/cooja/mtype248.a(rpl-ext-header.)
 .debug_aranges
                0x0000000000000a40       0x20 build/cooja/mtype248.a(rpl-mrhof.o)
 .debug_aranges
                0x0000000000000a60       0x20 build/cooja/mtype248.a(border-router-e)

.debug_pubnames
 *(.debug_pubnames)

.debug_info     0x0000000000000000    0x48267
 *(.debug_info .gnu.linkonce.wi.*)
 .debug_info    0x0000000000000000      0x9d0 border-router.o
 .debug_info    0x00000000000009d0     0x4164 build/cooja/mtype248.o
 .debug_info    0x0000000000004b34      0x515 build/cooja/mtype248.a(simEnvChange.o)
 .debug_info    0x0000000000005049      0x2df build/cooja/mtype248.a(cooja_mt.o)
 .debug_info    0x0000000000005328      0x5f2 build/cooja/mtype248.a(cooja_mtarch.o)
 .debug_info    0x000000000000591a      0x30e build/cooja/mtype248.a(rtimer-arch.o)
 .debug_info    0x0000000000005c28      0x334 build/cooja/mtype248.a(beep.o)
 .debug_info    0x0000000000005f5c      0x2e8 build/cooja/mtype248.a(leds-arch.o)
 .debug_info    0x0000000000006244      0x261 build/cooja/mtype248.a(moteid.o)
 .debug_info    0x00000000000064a5      0x37f build/cooja/mtype248.a(pir-sensor.o)
 .debug_info    0x0000000000006824      0x61e build/cooja/mtype248.a(rs232.o)
 .debug_info    0x0000000000006e42      0x37f build/cooja/mtype248.a(vib-sensor.o)
 .debug_info    0x00000000000071c1      0x293 build/cooja/mtype248.a(clock.o)
 .debug_info    0x0000000000007454      0x686 build/cooja/mtype248.a(cooja-log.o)
 .debug_info    0x0000000000007ada      0x798 build/cooja/mtype248.a(cfs-cooja.o)
 .debug_info    0x0000000000008272     0x1344 build/cooja/mtype248.a(cooja-radio.o)
 .debug_info    0x00000000000095b6      0x31e build/cooja/mtype248.a(eeprom.o)
 .debug_info    0x00000000000098d4       0xa8 build/cooja/mtype248.a(random.o)
 .debug_info    0x000000000000997c      0x3f5 build/cooja/mtype248.a(sensors.o)
 .debug_info    0x0000000000009d71      0x3da build/cooja/mtype248.a(leds.o)
 .debug_info    0x000000000000a14b      0xcb0 build/cooja/mtype248.a(gpio-hal-arch.o)
 .debug_info    0x000000000000adfb      0xcea build/cooja/mtype248.a(buttons.o)
 .debug_info    0x000000000000bae5     0x16da build/cooja/mtype248.a(webserver.o)
 .debug_info    0x000000000000d1bf     0x2067 build/cooja/mtype248.a(contiki-main.o)
 .debug_info    0x000000000000f226      0x225 build/cooja/mtype248.a(autostart.o)
 .debug_info    0x000000000000f44b      0x4d6 build/cooja/mtype248.a(ctimer.o)
 .debug_info    0x000000000000f921      0xc41 build/cooja/mtype248.a(log.o)
 .debug_info    0x0000000000010562      0x210 build/cooja/mtype248.a(energest.o)
 .debug_info    0x0000000000010772      0x4fe build/cooja/mtype248.a(etimer.o)
 .debug_info    0x0000000000010c70      0x60d build/cooja/mtype248.a(node-id.o)
 .debug_info    0x000000000001127d      0x314 build/cooja/mtype248.a(rtimer.o)
 .debug_info    0x0000000000011591      0x7b2 build/cooja/mtype248.a(process.o)
 .debug_info    0x0000000000011d43      0x2b8 build/cooja/mtype248.a(timer.o)
 .debug_info    0x0000000000011ffb      0x4ce build/cooja/mtype248.a(list.o)
 .debug_info    0x00000000000124c9      0x70a build/cooja/mtype248.a(button-hal.o)
 .debug_info    0x0000000000012bd3      0x365 build/cooja/mtype248.a(serial-line.o)
 .debug_info    0x0000000000012f38      0xb0d build/cooja/mtype248.a(gpio-hal.o)
 .debug_info    0x0000000000013a45     0x15ae build/cooja/mtype248.a(queuebuf.o)
 .debug_info    0x0000000000014ff3     0x1572 build/cooja/mtype248.a(packetbuf.o)
 .debug_info    0x0000000000016565      0x73d build/cooja/mtype248.a(netstack.o)
 .debug_info    0x0000000000016ca2      0x2e9 build/cooja/mtype248.a(linkaddr.o)
 .debug_info    0x0000000000016f8b      0xf09 build/cooja/mtype248.a(csma.o)
 .debug_info    0x0000000000017e94     0x155b build/cooja/mtype248.a(csma-output.o)
 .debug_info    0x00000000000193ef     0x1606 build/cooja/mtype248.a(uip-sr.o)
 .debug_info    0x000000000001a9f5     0x1672 build/cooja/mtype248.a(uip-ds6.o)
 .debug_info    0x000000000001c067     0x1647 build/cooja/mtype248.a(uip-ds6-route.o)
 .debug_info    0x000000000001d6ae     0x14f8 build/cooja/mtype248.a(psock.o)
 .debug_info    0x000000000001eba6     0x1c89 build/cooja/mtype248.a(tcpip.o)
 .debug_info    0x000000000002082f     0x1df5 build/cooja/mtype248.a(uip6.o)
 .debug_info    0x0000000000022624     0x1830 build/cooja/mtype248.a(uip-ds6-nbr.o)
 .debug_info    0x0000000000023e54     0x14a1 build/cooja/mtype248.a(uip-nd6.o)
 .debug_info    0x00000000000252f5     0x2351 build/cooja/mtype248.a(sicslowpan.o)
 .debug_info    0x0000000000027646      0xb2c build/cooja/mtype248.a(uiplib.o)
 .debug_info    0x0000000000028172     0x1c2f build/cooja/mtype248.a(rpl.o)
 .debug_info    0x0000000000029da1     0x1da0 build/cooja/mtype248.a(rpl-icmp6.o)
 .debug_info    0x000000000002bb41     0x1ab8 build/cooja/mtype248.a(rpl-dag-root.o)
 .debug_info    0x000000000002d5f9     0x1192 build/cooja/mtype248.a(slip-bridge.o)
 .debug_info    0x000000000002e78b      0xb48 build/cooja/mtype248.a(slip.o)
 .debug_info    0x000000000002f2d3      0x218 build/cooja/mtype248.a(watchdog.o)
 .debug_info    0x000000000002f4eb      0x26d build/cooja/mtype248.a(int-master.o)
 .debug_info    0x000000000002f758      0x1df build/cooja/mtype248.a(slip-arch.o)
 .debug_info    0x000000000002f937     0x17e9 build/cooja/mtype248.a(httpd-simple.o)
 .debug_info    0x0000000000031120     0x1504 build/cooja/mtype248.a(rpl-border-rout)
 .debug_info    0x0000000000032624      0x2d0 build/cooja/mtype248.a(stimer.o)
 .debug_info    0x00000000000328f4      0x30c build/cooja/mtype248.a(ringbuf.o)
 .debug_info    0x0000000000032c00      0x32b build/cooja/mtype248.a(memb.o)
 .debug_info    0x0000000000032f2b      0x482 build/cooja/mtype248.a(assert.o)
 .debug_info    0x00000000000333ad     0x16c7 build/cooja/mtype248.a(nbr-table.o)
 .debug_info    0x0000000000034a74     0x1183 build/cooja/mtype248.a(link-stats.o)
 .debug_info    0x0000000000035bf7     0x1248 build/cooja/mtype248.a(mac-sequence.o)
 .debug_info    0x0000000000036e3f      0x9c4 build/cooja/mtype248.a(mac.o)
 .debug_info    0x0000000000037803      0xd4d build/cooja/mtype248.a(framer-802154.o)
 .debug_info    0x0000000000038550      0xc04 build/cooja/mtype248.a(frame802154.o)
 .debug_info    0x0000000000039154      0xe23 build/cooja/mtype248.a(csma-security.o)
 .debug_info    0x0000000000039f77      0xa60 build/cooja/mtype248.a(uipbuf.o)
 .debug_info    0x000000000003a9d7     0x1880 build/cooja/mtype248.a(uip-icmp6.o)
 .debug_info    0x000000000003c257      0xb71 build/cooja/mtype248.a(uip-packetqueue)
 .debug_info    0x000000000003cdc8     0x15bd build/cooja/mtype248.a(rpl-nbr-policy.)
 .debug_info    0x000000000003e385     0x1b24 build/cooja/mtype248.a(rpl-neighbor.o)
 .debug_info    0x000000000003fea9     0x1cee build/cooja/mtype248.a(rpl-dag.o)
 .debug_info    0x0000000000041b97     0x1a40 build/cooja/mtype248.a(rpl-timers.o)
 .debug_info    0x00000000000435d7     0x1f88 build/cooja/mtype248.a(rpl-ext-header.)
 .debug_info    0x000000000004555f     0x17ca build/cooja/mtype248.a(rpl-mrhof.o)
 .debug_info    0x0000000000046d29     0x153e build/cooja/mtype248.a(border-router-e)

.debug_abbrev   0x0000000000000000     0xb7c0
 *(.debug_abbrev)
 .debug_abbrev  0x0000000000000000      0x1db border-router.o
 .debug_abbrev  0x00000000000001db      0x330 build/cooja/mtype248.o
 .debug_abbrev  0x000000000000050b      0x167 build/cooja/mtype248.a(simEnvChange.o)
 .debug_abbrev  0x0000000000000672      0x188 build/cooja/mtype248.a(cooja_mt.o)
 .debug_abbrev  0x00000000000007fa      0x1c0 build/cooja/mtype248.a(cooja_mtarch.o)
 .debug_abbrev  0x00000000000009ba      0x18f build/cooja/mtype248.a(rtimer-arch.o)
 .debug_abbrev  0x0000000000000b49      0x18f build/cooja/mtype248.a(beep.o)
 .debug_abbrev  0x0000000000000cd8      0x15c build/cooja/mtype248.a(leds-arch.o)
 .debug_abbrev  0x0000000000000e34      0x14a build/cooja/mtype248.a(moteid.o)
 .debug_abbrev  0x0000000000000f7e      0x19a build/cooja/mtype248.a(pir-sensor.o)
 .debug_abbrev  0x0000000000001118      0x1ed build/cooja/mtype248.a(rs232.o)
 .debug_abbrev  0x0000000000001305      0x19a build/cooja/mtype248.a(vib-sensor.o)
 .debug_abbrev  0x000000000000149f      0x18f build/cooja/mtype248.a(clock.o)
 .debug_abbrev  0x000000000000162e      0x201 build/cooja/mtype248.a(cooja-log.o)
 .debug_abbrev  0x000000000000182f      0x1eb build/cooja/mtype248.a(cfs-cooja.o)
 .debug_abbrev  0x0000000000001a1a      0x399 build/cooja/mtype248.a(cooja-radio.o)
 .debug_abbrev  0x0000000000001db3      0x180 build/cooja/mtype248.a(eeprom.o)
 .debug_abbrev  0x0000000000001f33       0x6b build/cooja/mtype248.a(random.o)
 .debug_abbrev  0x0000000000001f9e      0x1cd build/cooja/mtype248.a(sensors.o)
 .debug_abbrev  0x000000000000216b      0x183 build/cooja/mtype248.a(leds.o)
 .debug_abbrev  0x00000000000022ee      0x24a build/cooja/mtype248.a(gpio-hal-arch.o)
 .debug_abbrev  0x0000000000002538      0x210 build/cooja/mtype248.a(buttons.o)
 .debug_abbrev  0x0000000000002748      0x269 build/cooja/mtype248.a(webserver.o)
 .debug_abbrev  0x00000000000029b1      0x239 build/cooja/mtype248.a(contiki-main.o)
 .debug_abbrev  0x0000000000002bea      0x12b build/cooja/mtype248.a(autostart.o)
 .debug_abbrev  0x0000000000002d15      0x1be build/cooja/mtype248.a(ctimer.o)
 .debug_abbrev  0x0000000000002ed3      0x230 build/cooja/mtype248.a(log.o)
 .debug_abbrev  0x0000000000003103      0x10d build/cooja/mtype248.a(energest.o)
 .debug_abbrev  0x0000000000003210      0x229 build/cooja/mtype248.a(etimer.o)
 .debug_abbrev  0x0000000000003439      0x180 build/cooja/mtype248.a(node-id.o)
 .debug_abbrev  0x00000000000035b9      0x1a6 build/cooja/mtype248.a(rtimer.o)
 .debug_abbrev  0x000000000000375f      0x27b build/cooja/mtype248.a(process.o)
 .debug_abbrev  0x00000000000039da      0x174 build/cooja/mtype248.a(timer.o)
 .debug_abbrev  0x0000000000003b4e      0x1e2 build/cooja/mtype248.a(list.o)
 .debug_abbrev  0x0000000000003d30      0x256 build/cooja/mtype248.a(button-hal.o)
 .debug_abbrev  0x0000000000003f86      0x1a0 build/cooja/mtype248.a(serial-line.o)
 .debug_abbrev  0x0000000000004126      0x1ef build/cooja/mtype248.a(gpio-hal.o)
 .debug_abbrev  0x0000000000004315      0x2c4 build/cooja/mtype248.a(queuebuf.o)
 .debug_abbrev  0x00000000000045d9      0x2dd build/cooja/mtype248.a(packetbuf.o)
 .debug_abbrev  0x00000000000048b6      0x207 build/cooja/mtype248.a(netstack.o)
 .debug_abbrev  0x0000000000004abd      0x177 build/cooja/mtype248.a(linkaddr.o)
 .debug_abbrev  0x0000000000004c34      0x27f build/cooja/mtype248.a(csma.o)
 .debug_abbrev  0x0000000000004eb3      0x2e1 build/cooja/mtype248.a(csma-output.o)
 .debug_abbrev  0x0000000000005194      0x2c9 build/cooja/mtype248.a(uip-sr.o)
 .debug_abbrev  0x000000000000545d      0x31e build/cooja/mtype248.a(uip-ds6.o)
 .debug_abbrev  0x000000000000577b      0x334 build/cooja/mtype248.a(uip-ds6-route.o)
 .debug_abbrev  0x0000000000005aaf      0x2f1 build/cooja/mtype248.a(psock.o)
 .debug_abbrev  0x0000000000005da0      0x3c4 build/cooja/mtype248.a(tcpip.o)
 .debug_abbrev  0x0000000000006164      0x36d build/cooja/mtype248.a(uip6.o)
 .debug_abbrev  0x00000000000064d1      0x2ec build/cooja/mtype248.a(uip-ds6-nbr.o)
 .debug_abbrev  0x00000000000067bd      0x272 build/cooja/mtype248.a(uip-nd6.o)
 .debug_abbrev  0x0000000000006a2f      0x34e build/cooja/mtype248.a(sicslowpan.o)
 .debug_abbrev  0x0000000000006d7d      0x1fd build/cooja/mtype248.a(uiplib.o)
 .debug_abbrev  0x0000000000006f7a      0x31d build/cooja/mtype248.a(rpl.o)
 .debug_abbrev  0x0000000000007297      0x35d build/cooja/mtype248.a(rpl-icmp6.o)
 .debug_abbrev  0x00000000000075f4      0x29b build/cooja/mtype248.a(rpl-dag-root.o)
 .debug_abbrev  0x000000000000788f      0x259 build/cooja/mtype248.a(slip-bridge.o)
 .debug_abbrev  0x0000000000007ae8      0x2a6 build/cooja/mtype248.a(slip.o)
 .debug_abbrev  0x0000000000007d8e      0x10b build/cooja/mtype248.a(watchdog.o)
 .debug_abbrev  0x0000000000007e99      0x170 build/cooja/mtype248.a(int-master.o)
 .debug_abbrev  0x0000000000008009       0xf3 build/cooja/mtype248.a(slip-arch.o)
 .debug_abbrev  0x00000000000080fc      0x299 build/cooja/mtype248.a(httpd-simple.o)
 .debug_abbrev  0x0000000000008395      0x233 build/cooja/mtype248.a(rpl-border-rout)
 .debug_abbrev  0x00000000000085c8      0x165 build/cooja/mtype248.a(stimer.o)
 .debug_abbrev  0x000000000000872d      0x15a build/cooja/mtype248.a(ringbuf.o)
 .debug_abbrev  0x0000000000008887      0x15a build/cooja/mtype248.a(memb.o)
 .debug_abbrev  0x00000000000089e1      0x13d build/cooja/mtype248.a(assert.o)
 .debug_abbrev  0x0000000000008b1e      0x35d build/cooja/mtype248.a(nbr-table.o)
 .debug_abbrev  0x0000000000008e7b      0x2d5 build/cooja/mtype248.a(link-stats.o)
 .debug_abbrev  0x0000000000009150      0x22a build/cooja/mtype248.a(mac-sequence.o)
 .debug_abbrev  0x000000000000937a      0x1ae build/cooja/mtype248.a(mac.o)
 .debug_abbrev  0x0000000000009528      0x22e build/cooja/mtype248.a(framer-802154.o)
 .debug_abbrev  0x0000000000009756      0x2cc build/cooja/mtype248.a(frame802154.o)
 .debug_abbrev  0x0000000000009a22      0x1d4 build/cooja/mtype248.a(csma-security.o)
 .debug_abbrev  0x0000000000009bf6      0x224 build/cooja/mtype248.a(uipbuf.o)
 .debug_abbrev  0x0000000000009e1a      0x2c9 build/cooja/mtype248.a(uip-icmp6.o)
 .debug_abbrev  0x000000000000a0e3      0x254 build/cooja/mtype248.a(uip-packetqueue)
 .debug_abbrev  0x000000000000a337      0x23b build/cooja/mtype248.a(rpl-nbr-policy.)
 .debug_abbrev  0x000000000000a572      0x377 build/cooja/mtype248.a(rpl-neighbor.o)
 .debug_abbrev  0x000000000000a8e9      0x3d6 build/cooja/mtype248.a(rpl-dag.o)
 .debug_abbrev  0x000000000000acbf      0x32e build/cooja/mtype248.a(rpl-timers.o)
 .debug_abbrev  0x000000000000afed      0x32f build/cooja/mtype248.a(rpl-ext-header.)
 .debug_abbrev  0x000000000000b31c      0x26f build/cooja/mtype248.a(rpl-mrhof.o)
 .debug_abbrev  0x000000000000b58b      0x235 build/cooja/mtype248.a(border-router-e)

.debug_line     0x0000000000000000     0xfb52
 *(.debug_line .debug_line.* .debug_line_end)
 .debug_line    0x0000000000000000      0x1e4 border-router.o
 .debug_line    0x00000000000001e4      0x4d8 build/cooja/mtype248.o
 .debug_line    0x00000000000006bc      0x1c3 build/cooja/mtype248.a(simEnvChange.o)
 .debug_line    0x000000000000087f      0x157 build/cooja/mtype248.a(cooja_mt.o)
 .debug_line    0x00000000000009d6      0x1fe build/cooja/mtype248.a(cooja_mtarch.o)
 .debug_line    0x0000000000000bd4      0x193 build/cooja/mtype248.a(rtimer-arch.o)
 .debug_line    0x0000000000000d67      0x11e build/cooja/mtype248.a(beep.o)
 .debug_line    0x0000000000000e85      0x179 build/cooja/mtype248.a(leds-arch.o)
 .debug_line    0x0000000000000ffe      0x136 build/cooja/mtype248.a(moteid.o)
 .debug_line    0x0000000000001134      0x171 build/cooja/mtype248.a(pir-sensor.o)
 .debug_line    0x00000000000012a5      0x21a build/cooja/mtype248.a(rs232.o)
 .debug_line    0x00000000000014bf      0x171 build/cooja/mtype248.a(vib-sensor.o)
 .debug_line    0x0000000000001630      0x10f build/cooja/mtype248.a(clock.o)
 .debug_line    0x000000000000173f      0x1f4 build/cooja/mtype248.a(cooja-log.o)
 .debug_line    0x0000000000001933      0x224 build/cooja/mtype248.a(cfs-cooja.o)
 .debug_line    0x0000000000001b57      0x383 build/cooja/mtype248.a(cooja-radio.o)
 .debug_line    0x0000000000001eda      0x140 build/cooja/mtype248.a(eeprom.o)
 .debug_line    0x000000000000201a       0x4d build/cooja/mtype248.a(random.o)
 .debug_line    0x0000000000002067      0x1a2 build/cooja/mtype248.a(sensors.o)
 .debug_line    0x0000000000002209      0x200 build/cooja/mtype248.a(leds.o)
 .debug_line    0x0000000000002409      0x2e4 build/cooja/mtype248.a(gpio-hal-arch.o)
 .debug_line    0x00000000000026ed      0x277 build/cooja/mtype248.a(buttons.o)
 .debug_line    0x0000000000002964      0x4ac build/cooja/mtype248.a(webserver.o)
 .debug_line    0x0000000000002e10      0x575 build/cooja/mtype248.a(contiki-main.o)
 .debug_line    0x0000000000003385      0x114 build/cooja/mtype248.a(autostart.o)
 .debug_line    0x0000000000003499      0x1b7 build/cooja/mtype248.a(ctimer.o)
 .debug_line    0x0000000000003650      0x288 build/cooja/mtype248.a(log.o)
 .debug_line    0x00000000000038d8      0x12b build/cooja/mtype248.a(energest.o)
 .debug_line    0x0000000000003a03      0x1e8 build/cooja/mtype248.a(etimer.o)
 .debug_line    0x0000000000003beb      0x176 build/cooja/mtype248.a(node-id.o)
 .debug_line    0x0000000000003d61      0x150 build/cooja/mtype248.a(rtimer.o)
 .debug_line    0x0000000000003eb1      0x295 build/cooja/mtype248.a(process.o)
 .debug_line    0x0000000000004146      0x10f build/cooja/mtype248.a(timer.o)
 .debug_line    0x0000000000004255      0x1bf build/cooja/mtype248.a(list.o)
 .debug_line    0x0000000000004414      0x291 build/cooja/mtype248.a(button-hal.o)
 .debug_line    0x00000000000046a5      0x1d3 build/cooja/mtype248.a(serial-line.o)
 .debug_line    0x0000000000004878      0x23f build/cooja/mtype248.a(gpio-hal.o)
 .debug_line    0x0000000000004ab7      0x364 build/cooja/mtype248.a(queuebuf.o)
 .debug_line    0x0000000000004e1b      0x39f build/cooja/mtype248.a(packetbuf.o)
 .debug_line    0x00000000000051ba      0x216 build/cooja/mtype248.a(netstack.o)
 .debug_line    0x00000000000053d0      0x14a build/cooja/mtype248.a(linkaddr.o)
 .debug_line    0x000000000000551a      0x2bb build/cooja/mtype248.a(csma.o)
 .debug_line    0x00000000000057d5      0x42a build/cooja/mtype248.a(csma-output.o)
 .debug_line    0x0000000000005bff      0x42b build/cooja/mtype248.a(uip-sr.o)
 .debug_line    0x000000000000602a      0x4ed build/cooja/mtype248.a(uip-ds6.o)
 .debug_line    0x0000000000006517      0x3c6 build/cooja/mtype248.a(uip-ds6-route.o)
 .debug_line    0x00000000000068dd      0x42b build/cooja/mtype248.a(psock.o)
 .debug_line    0x0000000000006d08      0x581 build/cooja/mtype248.a(tcpip.o)
 .debug_line    0x0000000000007289      0xbad build/cooja/mtype248.a(uip6.o)
 .debug_line    0x0000000000007e36      0x3fa build/cooja/mtype248.a(uip-ds6-nbr.o)
 .debug_line    0x0000000000008230      0x457 build/cooja/mtype248.a(uip-nd6.o)
 .debug_line    0x0000000000008687      0xc00 build/cooja/mtype248.a(sicslowpan.o)
 .debug_line    0x0000000000009287      0x302 build/cooja/mtype248.a(uiplib.o)
 .debug_line    0x0000000000009589      0x47d build/cooja/mtype248.a(rpl.o)
 .debug_line    0x0000000000009a06      0x5d3 build/cooja/mtype248.a(rpl-icmp6.o)
 .debug_line    0x0000000000009fd9      0x3ee build/cooja/mtype248.a(rpl-dag-root.o)
 .debug_line    0x000000000000a3c7      0x33a build/cooja/mtype248.a(slip-bridge.o)
 .debug_line    0x000000000000a701      0x2f6 build/cooja/mtype248.a(slip.o)
 .debug_line    0x000000000000a9f7      0x110 build/cooja/mtype248.a(watchdog.o)
 .debug_line    0x000000000000ab07      0x143 build/cooja/mtype248.a(int-master.o)
 .debug_line    0x000000000000ac4a      0x102 build/cooja/mtype248.a(slip-arch.o)
 .debug_line    0x000000000000ad4c      0x484 build/cooja/mtype248.a(httpd-simple.o)
 .debug_line    0x000000000000b1d0      0x3a6 build/cooja/mtype248.a(rpl-border-rout)
 .debug_line    0x000000000000b576      0x118 build/cooja/mtype248.a(stimer.o)
 .debug_line    0x000000000000b68e      0x16a build/cooja/mtype248.a(ringbuf.o)
 .debug_line    0x000000000000b7f8      0x169 build/cooja/mtype248.a(memb.o)
 .debug_line    0x000000000000b961      0x187 build/cooja/mtype248.a(assert.o)
 .debug_line    0x000000000000bae8      0x476 build/cooja/mtype248.a(nbr-table.o)
 .debug_line    0x000000000000bf5e      0x36e build/cooja/mtype248.a(link-stats.o)
 .debug_line    0x000000000000c2cc      0x347 build/cooja/mtype248.a(mac-sequence.o)
 .debug_line    0x000000000000c613      0x1ed build/cooja/mtype248.a(mac.o)
 .debug_line    0x000000000000c800      0x2e0 build/cooja/mtype248.a(framer-802154.o)
 .debug_line    0x000000000000cae0      0x3bb build/cooja/mtype248.a(frame802154.o)
 .debug_line    0x000000000000ce9b      0x292 build/cooja/mtype248.a(csma-security.o)
 .debug_line    0x000000000000d12d      0x25e build/cooja/mtype248.a(uipbuf.o)
 .debug_line    0x000000000000d38b      0x45b build/cooja/mtype248.a(uip-icmp6.o)
 .debug_line    0x000000000000d7e6      0x25d build/cooja/mtype248.a(uip-packetqueue)
 .debug_line    0x000000000000da43      0x322 build/cooja/mtype248.a(rpl-nbr-policy.)
 .debug_line    0x000000000000dd65      0x526 build/cooja/mtype248.a(rpl-neighbor.o)
 .debug_line    0x000000000000e28b      0x5e6 build/cooja/mtype248.a(rpl-dag.o)
 .debug_line    0x000000000000e871      0x4db build/cooja/mtype248.a(rpl-timers.o)
 .debug_line    0x000000000000ed4c      0x5a9 build/cooja/mtype248.a(rpl-ext-header.)
 .debug_line    0x000000000000f2f5      0x430 build/cooja/mtype248.a(rpl-mrhof.o)
 .debug_line    0x000000000000f725      0x42d build/cooja/mtype248.a(border-router-e)

.debug_frame
 *(.debug_frame)

.debug_str      0x0000000000000000     0x8eed
 *(.debug_str)
 .debug_str     0x0000000000000000      0x6db border-router.o
                                        0x7e2 (size before relaxing)
 .debug_str     0x00000000000006db     0x1adb build/cooja/mtype248.o
                                       0x2382 (size before relaxing)
 .debug_str     0x00000000000021b6       0x2d build/cooja/mtype248.a(simEnvChange.o)
                                        0x464 (size before relaxing)
 .debug_str     0x00000000000021e3       0x55 build/cooja/mtype248.a(cooja_mt.o)
                                        0x2b1 (size before relaxing)
 .debug_str     0x0000000000002238       0x94 build/cooja/mtype248.a(cooja_mtarch.o)
                                        0x4d3 (size before relaxing)
 .debug_str     0x00000000000022cc      0x124 build/cooja/mtype248.a(rtimer-arch.o)
                                        0x35d (size before relaxing)
 .debug_str     0x00000000000023f0       0xc3 build/cooja/mtype248.a(beep.o)
                                        0x319 (size before relaxing)
 .debug_str     0x00000000000024b3       0x9b build/cooja/mtype248.a(leds-arch.o)
                                        0x33d (size before relaxing)
 .debug_str     0x000000000000254e       0x46 build/cooja/mtype248.a(moteid.o)
                                        0x2dc (size before relaxing)
 .debug_str     0x0000000000002594       0x54 build/cooja/mtype248.a(pir-sensor.o)
                                        0x331 (size before relaxing)
 .debug_str     0x00000000000025e8       0xc0 build/cooja/mtype248.a(rs232.o)
                                        0x59a (size before relaxing)
 .debug_str     0x00000000000026a8       0x54 build/cooja/mtype248.a(vib-sensor.o)
                                        0x331 (size before relaxing)
 .debug_str     0x00000000000026fc       0x61 build/cooja/mtype248.a(clock.o)
                                        0x2ec (size before relaxing)
 .debug_str     0x000000000000275d       0xd6 build/cooja/mtype248.a(cooja-log.o)
                                        0x57a (size before relaxing)
 .debug_str     0x0000000000002833      0x104 build/cooja/mtype248.a(cfs-cooja.o)
                                        0x585 (size before relaxing)
 .debug_str     0x0000000000002937      0x6aa build/cooja/mtype248.a(cooja-radio.o)
                                       0x1002 (size before relaxing)
 .debug_str     0x0000000000002fe1       0x98 build/cooja/mtype248.a(eeprom.o)
                                        0x329 (size before relaxing)
 .debug_str     0x0000000000003079       0x33 build/cooja/mtype248.a(random.o)
                                        0x146 (size before relaxing)
 .debug_str     0x00000000000030ac       0x8b build/cooja/mtype248.a(sensors.o)
                                        0x324 (size before relaxing)
 .debug_str     0x0000000000003137       0x8a build/cooja/mtype248.a(leds.o)
                                        0x306 (size before relaxing)
 .debug_str     0x00000000000031c1      0x2a5 build/cooja/mtype248.a(gpio-hal-arch.o)
                                        0xa3a (size before relaxing)
 .debug_str     0x0000000000003466       0xf4 build/cooja/mtype248.a(buttons.o)
                                        0xa13 (size before relaxing)
 .debug_str     0x000000000000355a      0x305 build/cooja/mtype248.a(webserver.o)
                                        0xea5 (size before relaxing)
 .debug_str     0x000000000000385f      0xb08 build/cooja/mtype248.a(contiki-main.o)
                                       0x1af5 (size before relaxing)
 .debug_str     0x0000000000004367       0x38 build/cooja/mtype248.a(autostart.o)
                                        0x250 (size before relaxing)
 .debug_str     0x000000000000439f       0xcf build/cooja/mtype248.a(ctimer.o)
                                        0x334 (size before relaxing)
 .debug_str     0x000000000000446e       0xb0 build/cooja/mtype248.a(log.o)
                                        0x85c (size before relaxing)
 .debug_str     0x000000000000451e       0x4d build/cooja/mtype248.a(energest.o)
                                        0x26f (size before relaxing)
 .debug_str     0x000000000000456b      0x150 build/cooja/mtype248.a(etimer.o)
                                        0x398 (size before relaxing)
 .debug_str     0x00000000000046bb       0x24 build/cooja/mtype248.a(node-id.o)
                                        0x48a (size before relaxing)
 .debug_str     0x00000000000046df       0xb0 build/cooja/mtype248.a(rtimer.o)
                                        0x2f3 (size before relaxing)
 .debug_str     0x000000000000478f      0x147 build/cooja/mtype248.a(process.o)
                                        0x550 (size before relaxing)
 .debug_str     0x00000000000048d6       0x15 build/cooja/mtype248.a(timer.o)
                                        0x27f (size before relaxing)
 .debug_str     0x00000000000048eb       0xb4 build/cooja/mtype248.a(list.o)
                                        0x2de (size before relaxing)
 .debug_str     0x000000000000499f      0x194 build/cooja/mtype248.a(button-hal.o)
                                        0x587 (size before relaxing)
 .debug_str     0x0000000000004b33       0x80 build/cooja/mtype248.a(serial-line.o)
                                        0x309 (size before relaxing)
 .debug_str     0x0000000000004bb3       0xfa build/cooja/mtype248.a(gpio-hal.o)
                                        0x8ff (size before relaxing)
 .debug_str     0x0000000000004cad      0x1ca build/cooja/mtype248.a(queuebuf.o)
                                        0xeea (size before relaxing)
 .debug_str     0x0000000000004e77      0x1ad build/cooja/mtype248.a(packetbuf.o)
                                        0xf1f (size before relaxing)
 .debug_str     0x0000000000005024      0x167 build/cooja/mtype248.a(netstack.o)
                                        0x5ca (size before relaxing)
 .debug_str     0x000000000000518b       0x4a build/cooja/mtype248.a(linkaddr.o)
                                        0x2a9 (size before relaxing)
 .debug_str     0x00000000000051d5       0x82 build/cooja/mtype248.a(csma.o)
                                        0xdfe (size before relaxing)
 .debug_str     0x0000000000005257      0x297 build/cooja/mtype248.a(csma-output.o)
                                        0xebb (size before relaxing)
 .debug_str     0x00000000000054ee      0x16e build/cooja/mtype248.a(uip-sr.o)
                                        0xeba (size before relaxing)
 .debug_str     0x000000000000565c      0x2e7 build/cooja/mtype248.a(uip-ds6.o)
                                        0xeb7 (size before relaxing)
 .debug_str     0x0000000000005943      0x248 build/cooja/mtype248.a(uip-ds6-route.o)
                                        0xf67 (size before relaxing)
 .debug_str     0x0000000000005b8b       0xdc build/cooja/mtype248.a(psock.o)
                                        0xca9 (size before relaxing)
 .debug_str     0x0000000000005c67      0x34e build/cooja/mtype248.a(tcpip.o)
                                       0x12c9 (size before relaxing)
 .debug_str     0x0000000000005fb5      0x31c build/cooja/mtype248.a(uip6.o)
                                       0x1292 (size before relaxing)
 .debug_str     0x00000000000062d1      0x1c2 build/cooja/mtype248.a(uip-ds6-nbr.o)
                                       0x1157 (size before relaxing)
 .debug_str     0x0000000000006493      0x11d build/cooja/mtype248.a(uip-nd6.o)
                                        0xed5 (size before relaxing)
 .debug_str     0x00000000000065b0      0x58e build/cooja/mtype248.a(sicslowpan.o)
                                       0x17e8 (size before relaxing)
 .debug_str     0x0000000000006b3e       0x90 build/cooja/mtype248.a(uiplib.o)
                                        0x813 (size before relaxing)
 .debug_str     0x0000000000006bce      0x11f build/cooja/mtype248.a(rpl.o)
                                       0x13ae (size before relaxing)
 .debug_str     0x0000000000006ced      0x1cf build/cooja/mtype248.a(rpl-icmp6.o)
                                       0x158a (size before relaxing)
 .debug_str     0x0000000000006ebc       0xa1 build/cooja/mtype248.a(rpl-dag-root.o)
                                       0x133e (size before relaxing)
 .debug_str     0x0000000000006f5d       0x72 build/cooja/mtype248.a(slip-bridge.o)
                                        0xc5a (size before relaxing)
 .debug_str     0x0000000000006fcf       0xff build/cooja/mtype248.a(slip.o)
                                        0x79e (size before relaxing)
 .debug_str     0x00000000000070ce       0x76 build/cooja/mtype248.a(watchdog.o)
                                        0x284 (size before relaxing)
 .debug_str     0x0000000000007144       0x88 build/cooja/mtype248.a(int-master.o)
                                        0x2cb (size before relaxing)
 .debug_str     0x00000000000071cc       0x37 build/cooja/mtype248.a(slip-arch.o)
                                        0x252 (size before relaxing)
 .debug_str     0x0000000000007203       0xfb build/cooja/mtype248.a(httpd-simple.o)
                                        0xef6 (size before relaxing)
 .debug_str     0x00000000000072fe       0x73 build/cooja/mtype248.a(rpl-border-rout)
                                        0xf0d (size before relaxing)
 .debug_str     0x0000000000007371       0x6c build/cooja/mtype248.a(stimer.o)
                                        0x290 (size before relaxing)
 .debug_str     0x00000000000073dd       0x5a build/cooja/mtype248.a(ringbuf.o)
                                        0x2a9 (size before relaxing)
 .debug_str     0x0000000000007437       0x5a build/cooja/mtype248.a(memb.o)
                                        0x27d (size before relaxing)
 .debug_str     0x0000000000007491       0x26 build/cooja/mtype248.a(assert.o)
                                        0x420 (size before relaxing)
 .debug_str     0x00000000000074b7      0x373 build/cooja/mtype248.a(nbr-table.o)
                                        0xd7d (size before relaxing)
 .debug_str     0x000000000000782a      0x129 build/cooja/mtype248.a(link-stats.o)
                                        0xe7a (size before relaxing)
 .debug_str     0x0000000000007953       0x70 build/cooja/mtype248.a(mac-sequence.o)
                                        0xd79 (size before relaxing)
 .debug_str     0x00000000000079c3       0x35 build/cooja/mtype248.a(mac.o)
                                        0x7d7 (size before relaxing)
 .debug_str     0x00000000000079f8      0x22d build/cooja/mtype248.a(framer-802154.o)
                                        0xbcf (size before relaxing)
 .debug_str     0x0000000000007c25      0x1f2 build/cooja/mtype248.a(frame802154.o)
                                        0x86e (size before relaxing)
 .debug_str     0x0000000000007e17       0x8f build/cooja/mtype248.a(csma-security.o)
                                        0xb82 (size before relaxing)
 .debug_str     0x0000000000007ea6      0x1af build/cooja/mtype248.a(uipbuf.o)
                                        0x772 (size before relaxing)
 .debug_str     0x0000000000008055      0x1ed build/cooja/mtype248.a(uip-icmp6.o)
                                       0x1109 (size before relaxing)
 .debug_str     0x0000000000008242       0xf3 build/cooja/mtype248.a(uip-packetqueue)
                                        0x7e7 (size before relaxing)
 .debug_str     0x0000000000008335       0x51 build/cooja/mtype248.a(rpl-nbr-policy.)
                                       0x100e (size before relaxing)
 .debug_str     0x0000000000008386      0x266 build/cooja/mtype248.a(rpl-neighbor.o)
                                       0x1317 (size before relaxing)
 .debug_str     0x00000000000085ec      0x2d8 build/cooja/mtype248.a(rpl-dag.o)
                                       0x1461 (size before relaxing)
 .debug_str     0x00000000000088c4      0x324 build/cooja/mtype248.a(rpl-timers.o)
                                       0x135d (size before relaxing)
 .debug_str     0x0000000000008be8      0x1db build/cooja/mtype248.a(rpl-ext-header.)
                                       0x1738 (size before relaxing)
 .debug_str     0x0000000000008dc3       0xbf build/cooja/mtype248.a(rpl-mrhof.o)
                                       0x10c0 (size before relaxing)
 .debug_str     0x0000000000008e82       0x6b build/cooja/mtype248.a(border-router-e)
                                        0xf83 (size before relaxing)

.debug_loc
 *(.debug_loc)

.debug_macinfo
 *(.debug_macinfo)

.debug_weaknames
 *(.debug_weaknames)

.debug_funcnames
 *(.debug_funcnames)

.debug_typenames
 *(.debug_typenames)

.debug_varnames
 *(.debug_varnames)

.debug_pubtypes
 *(.debug_pubtypes)

.debug_ranges   0x0000000000000000       0x88
 *(.debug_ranges)
 .debug_ranges  0x0000000000000000       0x18 build/cooja/mtype248.a(etimer.o)
 .debug_ranges  0x0000000000000018       0x30 build/cooja/mtype248.a(csma-output.o)
 .debug_ranges  0x0000000000000048       0x18 build/cooja/mtype248.a(tcpip.o)
 .debug_ranges  0x0000000000000060       0x28 build/cooja/mtype248.a(uip-nd6.o)

.debug_macro
 *(.debug_macro)

.debug_addr
 *(.debug_addr)

.gnu.attributes
 *(.gnu.attributes)

/DISCARD/
 *(.note.GNU-stack)
 *(.gnu_debuglink)
 *(.gnu.lto_*)
OUTPUT(build/cooja/mtype248.cooja elf32-i386)
